

Microchip Technology PIC LITE Macro Assembler V1.32 build 58300 
                                                                                               Wed Nov 26 14:50:26 2014

Microchip Technology Omniscient Code Generator (Lite mode) build 58300
     1                           	processor	16F723A
     2                           	opt	pw 120
     3                           	opt	lm
     4                           	psect	text0,local,class=CODE,merge=1,inline,delta=2
     5                           	psect	cinit,global,class=CODE,merge=1,delta=2
     6                           	psect	bssCOMMON,global,class=COMMON,space=1,delta=1
     7                           	psect	bssBANK0,global,class=BANK0,space=1,delta=1
     8                           	psect	bssBANK1,global,class=BANK1,space=1,delta=1
     9                           	psect	clrtext,global,class=CODE,delta=2
    10                           	psect	cstackCOMMON,global,class=COMMON,space=1,delta=1
    11                           	psect	cstackBANK0,global,class=BANK0,space=1,delta=1
    12                           	psect	maintext,global,class=CODE,split=1,delta=2
    13                           	psect	text1,local,class=CODE,merge=1,inline,delta=2
    14                           	psect	text2,local,class=CODE,merge=1,inline,delta=2
    15                           	psect	text3,local,class=CODE,merge=1,inline,delta=2
    16                           	psect	text4,local,class=CODE,merge=1,delta=2
    17                           	psect	text5,local,class=CODE,merge=1,delta=2
    18                           	psect	text6,local,class=CODE,merge=1,inline,delta=2
    19                           	psect	text7,local,class=CODE,merge=1,inline,delta=2
    20                           	psect	text8,local,class=CODE,merge=1,inline,delta=2
    21                           	psect	text9,local,class=CODE,merge=1,inline,delta=2
    22                           	psect	text10,local,class=CODE,merge=1,delta=2
    23                           	psect	text11,local,class=CODE,merge=1,delta=2
    24                           	psect	text12,local,class=CODE,merge=1,inline,delta=2
    25                           	psect	text13,local,class=CODE,merge=1,delta=2
    26                           	psect	text14,local,class=CODE,merge=1,delta=2
    27                           	psect	text15,local,class=CODE,merge=1,inline,delta=2
    28                           	psect	text16,local,class=CODE,merge=1,delta=2
    29                           	psect	text17,local,class=CODE,merge=1,delta=2
    30                           	psect	text18,local,class=CODE,merge=1,delta=2
    31                           	psect	text19,local,class=CODE,merge=1,delta=2
    32                           	psect	text20,local,class=CODE,merge=1,delta=2
    33                           	psect	text21,local,class=CODE,merge=1,delta=2
    34                           	psect	text22,local,class=CODE,merge=1,delta=2
    35                           	psect	text23,local,class=CODE,merge=1,delta=2
    36                           	psect	text24,local,class=CODE,merge=1,delta=2
    37                           	psect	text25,local,class=CODE,merge=1,delta=2
    38                           	psect	text26,local,class=CODE,merge=1,inline,delta=2
    39                           	psect	text27,local,class=CODE,merge=1,delta=2
    40                           	psect	text28,local,class=CODE,merge=1,delta=2
    41                           	psect	text29,local,class=CODE,merge=1,delta=2
    42                           	psect	text30,local,class=CODE,merge=1,delta=2
    43                           	psect	text31,local,class=CODE,merge=1,delta=2
    44                           	psect	text32,local,class=CODE,merge=1,delta=2
    45                           	psect	text33,local,class=CODE,merge=1,delta=2
    46                           	psect	text34,local,class=CODE,merge=1,delta=2
    47                           	psect	text35,local,class=CODE,merge=1,delta=2
    48                           	psect	text36,local,class=CODE,merge=1,delta=2
    49                           	psect	text37,local,class=CODE,merge=1,delta=2
    50                           	psect	text38,local,class=CODE,merge=1,delta=2
    51                           	psect	text39,local,class=CODE,merge=1,delta=2
    52                           	psect	text40,local,class=CODE,merge=1,delta=2
    53                           	psect	text41,local,class=CODE,merge=1,inline,delta=2
    54                           	psect	text42,local,class=CODE,merge=1,delta=2
    55                           	psect	text43,local,class=CODE,merge=1,inline,delta=2
    56                           	psect	text44,local,class=CODE,merge=1,delta=2
    57                           	psect	text45,local,class=CODE,merge=1,delta=2
    58                           	psect	text46,local,class=CODE,merge=1,delta=2
    59                           	psect	text47,local,class=CODE,merge=1,inline,delta=2
    60                           	psect	text48,local,class=CODE,merge=1,inline,delta=2
    61                           	psect	text49,local,class=CODE,merge=1,delta=2
    62                           	psect	intentry,global,class=CODE,delta=2
    63                           	psect	text50,local,class=CODE,merge=1,inline,delta=2
    64                           	dabs	1,0x7E,2
    65  0000                     	;# 
    66  0001                     	;# 
    67  0002                     	;# 
    68  0003                     	;# 
    69  0004                     	;# 
    70  0005                     	;# 
    71  0006                     	;# 
    72  0007                     	;# 
    73  0009                     	;# 
    74  000A                     	;# 
    75  000B                     	;# 
    76  000C                     	;# 
    77  000D                     	;# 
    78  000E                     	;# 
    79  000E                     	;# 
    80  000F                     	;# 
    81  0010                     	;# 
    82  0011                     	;# 
    83  0012                     	;# 
    84  0013                     	;# 
    85  0014                     	;# 
    86  0015                     	;# 
    87  0015                     	;# 
    88  0016                     	;# 
    89  0017                     	;# 
    90  0018                     	;# 
    91  0019                     	;# 
    92  001A                     	;# 
    93  001B                     	;# 
    94  001B                     	;# 
    95  001C                     	;# 
    96  001D                     	;# 
    97  001E                     	;# 
    98  001F                     	;# 
    99  0081                     	;# 
   100  0085                     	;# 
   101  0086                     	;# 
   102  0087                     	;# 
   103  0089                     	;# 
   104  008C                     	;# 
   105  008D                     	;# 
   106  008E                     	;# 
   107  008F                     	;# 
   108  0090                     	;# 
   109  0091                     	;# 
   110  0092                     	;# 
   111  0093                     	;# 
   112  0093                     	;# 
   113  0094                     	;# 
   114  0095                     	;# 
   115  0095                     	;# 
   116  0096                     	;# 
   117  0096                     	;# 
   118  0098                     	;# 
   119  0099                     	;# 
   120  009C                     	;# 
   121  009D                     	;# 
   122  009F                     	;# 
   123  0108                     	;# 
   124  0109                     	;# 
   125  010C                     	;# 
   126  010C                     	;# 
   127  010D                     	;# 
   128  010D                     	;# 
   129  010E                     	;# 
   130  010F                     	;# 
   131  0185                     	;# 
   132  0186                     	;# 
   133  018C                     	;# 
   134  0000                     	;# 
   135  0001                     	;# 
   136  0002                     	;# 
   137  0003                     	;# 
   138  0004                     	;# 
   139  0005                     	;# 
   140  0006                     	;# 
   141  0007                     	;# 
   142  0009                     	;# 
   143  000A                     	;# 
   144  000B                     	;# 
   145  000C                     	;# 
   146  000D                     	;# 
   147  000E                     	;# 
   148  000E                     	;# 
   149  000F                     	;# 
   150  0010                     	;# 
   151  0011                     	;# 
   152  0012                     	;# 
   153  0013                     	;# 
   154  0014                     	;# 
   155  0015                     	;# 
   156  0015                     	;# 
   157  0016                     	;# 
   158  0017                     	;# 
   159  0018                     	;# 
   160  0019                     	;# 
   161  001A                     	;# 
   162  001B                     	;# 
   163  001B                     	;# 
   164  001C                     	;# 
   165  001D                     	;# 
   166  001E                     	;# 
   167  001F                     	;# 
   168  0081                     	;# 
   169  0085                     	;# 
   170  0086                     	;# 
   171  0087                     	;# 
   172  0089                     	;# 
   173  008C                     	;# 
   174  008D                     	;# 
   175  008E                     	;# 
   176  008F                     	;# 
   177  0090                     	;# 
   178  0091                     	;# 
   179  0092                     	;# 
   180  0093                     	;# 
   181  0093                     	;# 
   182  0094                     	;# 
   183  0095                     	;# 
   184  0095                     	;# 
   185  0096                     	;# 
   186  0096                     	;# 
   187  0098                     	;# 
   188  0099                     	;# 
   189  009C                     	;# 
   190  009D                     	;# 
   191  009F                     	;# 
   192  0108                     	;# 
   193  0109                     	;# 
   194  010C                     	;# 
   195  010C                     	;# 
   196  010D                     	;# 
   197  010D                     	;# 
   198  010E                     	;# 
   199  010F                     	;# 
   200  0185                     	;# 
   201  0186                     	;# 
   202  018C                     	;# 
   203  0000                     	;# 
   204  0001                     	;# 
   205  0002                     	;# 
   206  0003                     	;# 
   207  0004                     	;# 
   208  0005                     	;# 
   209  0006                     	;# 
   210  0007                     	;# 
   211  0009                     	;# 
   212  000A                     	;# 
   213  000B                     	;# 
   214  000C                     	;# 
   215  000D                     	;# 
   216  000E                     	;# 
   217  000E                     	;# 
   218  000F                     	;# 
   219  0010                     	;# 
   220  0011                     	;# 
   221  0012                     	;# 
   222  0013                     	;# 
   223  0014                     	;# 
   224  0015                     	;# 
   225  0015                     	;# 
   226  0016                     	;# 
   227  0017                     	;# 
   228  0018                     	;# 
   229  0019                     	;# 
   230  001A                     	;# 
   231  001B                     	;# 
   232  001B                     	;# 
   233  001C                     	;# 
   234  001D                     	;# 
   235  001E                     	;# 
   236  001F                     	;# 
   237  0081                     	;# 
   238  0085                     	;# 
   239  0086                     	;# 
   240  0087                     	;# 
   241  0089                     	;# 
   242  008C                     	;# 
   243  008D                     	;# 
   244  008E                     	;# 
   245  008F                     	;# 
   246  0090                     	;# 
   247  0091                     	;# 
   248  0092                     	;# 
   249  0093                     	;# 
   250  0093                     	;# 
   251  0094                     	;# 
   252  0095                     	;# 
   253  0095                     	;# 
   254  0096                     	;# 
   255  0096                     	;# 
   256  0098                     	;# 
   257  0099                     	;# 
   258  009C                     	;# 
   259  009D                     	;# 
   260  009F                     	;# 
   261  0108                     	;# 
   262  0109                     	;# 
   263  010C                     	;# 
   264  010C                     	;# 
   265  010D                     	;# 
   266  010D                     	;# 
   267  010E                     	;# 
   268  010F                     	;# 
   269  0185                     	;# 
   270  0186                     	;# 
   271  018C                     	;# 
   272  0000                     	;# 
   273  0001                     	;# 
   274  0002                     	;# 
   275  0003                     	;# 
   276  0004                     	;# 
   277  0005                     	;# 
   278  0006                     	;# 
   279  0007                     	;# 
   280  0009                     	;# 
   281  000A                     	;# 
   282  000B                     	;# 
   283  000C                     	;# 
   284  000D                     	;# 
   285  000E                     	;# 
   286  000E                     	;# 
   287  000F                     	;# 
   288  0010                     	;# 
   289  0011                     	;# 
   290  0012                     	;# 
   291  0013                     	;# 
   292  0014                     	;# 
   293  0015                     	;# 
   294  0015                     	;# 
   295  0016                     	;# 
   296  0017                     	;# 
   297  0018                     	;# 
   298  0019                     	;# 
   299  001A                     	;# 
   300  001B                     	;# 
   301  001B                     	;# 
   302  001C                     	;# 
   303  001D                     	;# 
   304  001E                     	;# 
   305  001F                     	;# 
   306  0081                     	;# 
   307  0085                     	;# 
   308  0086                     	;# 
   309  0087                     	;# 
   310  0089                     	;# 
   311  008C                     	;# 
   312  008D                     	;# 
   313  008E                     	;# 
   314  008F                     	;# 
   315  0090                     	;# 
   316  0091                     	;# 
   317  0092                     	;# 
   318  0093                     	;# 
   319  0093                     	;# 
   320  0094                     	;# 
   321  0095                     	;# 
   322  0095                     	;# 
   323  0096                     	;# 
   324  0096                     	;# 
   325  0098                     	;# 
   326  0099                     	;# 
   327  009C                     	;# 
   328  009D                     	;# 
   329  009F                     	;# 
   330  0108                     	;# 
   331  0109                     	;# 
   332  010C                     	;# 
   333  010C                     	;# 
   334  010D                     	;# 
   335  010D                     	;# 
   336  010E                     	;# 
   337  010F                     	;# 
   338  0185                     	;# 
   339  0186                     	;# 
   340  018C                     	;# 
   341  0000                     	;# 
   342  0001                     	;# 
   343  0002                     	;# 
   344  0003                     	;# 
   345  0004                     	;# 
   346  0005                     	;# 
   347  0006                     	;# 
   348  0007                     	;# 
   349  0009                     	;# 
   350  000A                     	;# 
   351  000B                     	;# 
   352  000C                     	;# 
   353  000D                     	;# 
   354  000E                     	;# 
   355  000E                     	;# 
   356  000F                     	;# 
   357  0010                     	;# 
   358  0011                     	;# 
   359  0012                     	;# 
   360  0013                     	;# 
   361  0014                     	;# 
   362  0015                     	;# 
   363  0015                     	;# 
   364  0016                     	;# 
   365  0017                     	;# 
   366  0018                     	;# 
   367  0019                     	;# 
   368  001A                     	;# 
   369  001B                     	;# 
   370  001B                     	;# 
   371  001C                     	;# 
   372  001D                     	;# 
   373  001E                     	;# 
   374  001F                     	;# 
   375  0081                     	;# 
   376  0085                     	;# 
   377  0086                     	;# 
   378  0087                     	;# 
   379  0089                     	;# 
   380  008C                     	;# 
   381  008D                     	;# 
   382  008E                     	;# 
   383  008F                     	;# 
   384  0090                     	;# 
   385  0091                     	;# 
   386  0092                     	;# 
   387  0093                     	;# 
   388  0093                     	;# 
   389  0094                     	;# 
   390  0095                     	;# 
   391  0095                     	;# 
   392  0096                     	;# 
   393  0096                     	;# 
   394  0098                     	;# 
   395  0099                     	;# 
   396  009C                     	;# 
   397  009D                     	;# 
   398  009F                     	;# 
   399  0108                     	;# 
   400  0109                     	;# 
   401  010C                     	;# 
   402  010C                     	;# 
   403  010D                     	;# 
   404  010D                     	;# 
   405  010E                     	;# 
   406  010F                     	;# 
   407  0185                     	;# 
   408  0186                     	;# 
   409  018C                     	;# 
   410  0000                     	;# 
   411  0001                     	;# 
   412  0002                     	;# 
   413  0003                     	;# 
   414  0004                     	;# 
   415  0005                     	;# 
   416  0006                     	;# 
   417  0007                     	;# 
   418  0009                     	;# 
   419  000A                     	;# 
   420  000B                     	;# 
   421  000C                     	;# 
   422  000D                     	;# 
   423  000E                     	;# 
   424  000E                     	;# 
   425  000F                     	;# 
   426  0010                     	;# 
   427  0011                     	;# 
   428  0012                     	;# 
   429  0013                     	;# 
   430  0014                     	;# 
   431  0015                     	;# 
   432  0015                     	;# 
   433  0016                     	;# 
   434  0017                     	;# 
   435  0018                     	;# 
   436  0019                     	;# 
   437  001A                     	;# 
   438  001B                     	;# 
   439  001B                     	;# 
   440  001C                     	;# 
   441  001D                     	;# 
   442  001E                     	;# 
   443  001F                     	;# 
   444  0081                     	;# 
   445  0085                     	;# 
   446  0086                     	;# 
   447  0087                     	;# 
   448  0089                     	;# 
   449  008C                     	;# 
   450  008D                     	;# 
   451  008E                     	;# 
   452  008F                     	;# 
   453  0090                     	;# 
   454  0091                     	;# 
   455  0092                     	;# 
   456  0093                     	;# 
   457  0093                     	;# 
   458  0094                     	;# 
   459  0095                     	;# 
   460  0095                     	;# 
   461  0096                     	;# 
   462  0096                     	;# 
   463  0098                     	;# 
   464  0099                     	;# 
   465  009C                     	;# 
   466  009D                     	;# 
   467  009F                     	;# 
   468  0108                     	;# 
   469  0109                     	;# 
   470  010C                     	;# 
   471  010C                     	;# 
   472  010D                     	;# 
   473  010D                     	;# 
   474  010E                     	;# 
   475  010F                     	;# 
   476  0185                     	;# 
   477  0186                     	;# 
   478  018C                     	;# 
   479  0000                     	;# 
   480  0001                     	;# 
   481  0002                     	;# 
   482  0003                     	;# 
   483  0004                     	;# 
   484  0005                     	;# 
   485  0006                     	;# 
   486  0007                     	;# 
   487  0009                     	;# 
   488  000A                     	;# 
   489  000B                     	;# 
   490  000C                     	;# 
   491  000D                     	;# 
   492  000E                     	;# 
   493  000E                     	;# 
   494  000F                     	;# 
   495  0010                     	;# 
   496  0011                     	;# 
   497  0012                     	;# 
   498  0013                     	;# 
   499  0014                     	;# 
   500  0015                     	;# 
   501  0015                     	;# 
   502  0016                     	;# 
   503  0017                     	;# 
   504  0018                     	;# 
   505  0019                     	;# 
   506  001A                     	;# 
   507  001B                     	;# 
   508  001B                     	;# 
   509  001C                     	;# 
   510  001D                     	;# 
   511  001E                     	;# 
   512  001F                     	;# 
   513  0081                     	;# 
   514  0085                     	;# 
   515  0086                     	;# 
   516  0087                     	;# 
   517  0089                     	;# 
   518  008C                     	;# 
   519  008D                     	;# 
   520  008E                     	;# 
   521  008F                     	;# 
   522  0090                     	;# 
   523  0091                     	;# 
   524  0092                     	;# 
   525  0093                     	;# 
   526  0093                     	;# 
   527  0094                     	;# 
   528  0095                     	;# 
   529  0095                     	;# 
   530  0096                     	;# 
   531  0096                     	;# 
   532  0098                     	;# 
   533  0099                     	;# 
   534  009C                     	;# 
   535  009D                     	;# 
   536  009F                     	;# 
   537  0108                     	;# 
   538  0109                     	;# 
   539  010C                     	;# 
   540  010C                     	;# 
   541  010D                     	;# 
   542  010D                     	;# 
   543  010E                     	;# 
   544  010F                     	;# 
   545  0185                     	;# 
   546  0186                     	;# 
   547  018C                     	;# 
   548  0000                     	;# 
   549  0001                     	;# 
   550  0002                     	;# 
   551  0003                     	;# 
   552  0004                     	;# 
   553  0005                     	;# 
   554  0006                     	;# 
   555  0007                     	;# 
   556  0009                     	;# 
   557  000A                     	;# 
   558  000B                     	;# 
   559  000C                     	;# 
   560  000D                     	;# 
   561  000E                     	;# 
   562  000E                     	;# 
   563  000F                     	;# 
   564  0010                     	;# 
   565  0011                     	;# 
   566  0012                     	;# 
   567  0013                     	;# 
   568  0014                     	;# 
   569  0015                     	;# 
   570  0015                     	;# 
   571  0016                     	;# 
   572  0017                     	;# 
   573  0018                     	;# 
   574  0019                     	;# 
   575  001A                     	;# 
   576  001B                     	;# 
   577  001B                     	;# 
   578  001C                     	;# 
   579  001D                     	;# 
   580  001E                     	;# 
   581  001F                     	;# 
   582  0081                     	;# 
   583  0085                     	;# 
   584  0086                     	;# 
   585  0087                     	;# 
   586  0089                     	;# 
   587  008C                     	;# 
   588  008D                     	;# 
   589  008E                     	;# 
   590  008F                     	;# 
   591  0090                     	;# 
   592  0091                     	;# 
   593  0092                     	;# 
   594  0093                     	;# 
   595  0093                     	;# 
   596  0094                     	;# 
   597  0095                     	;# 
   598  0095                     	;# 
   599  0096                     	;# 
   600  0096                     	;# 
   601  0098                     	;# 
   602  0099                     	;# 
   603  009C                     	;# 
   604  009D                     	;# 
   605  009F                     	;# 
   606  0108                     	;# 
   607  0109                     	;# 
   608  010C                     	;# 
   609  010C                     	;# 
   610  010D                     	;# 
   611  010D                     	;# 
   612  010E                     	;# 
   613  010F                     	;# 
   614  0185                     	;# 
   615  0186                     	;# 
   616  018C                     	;# 
   617  0000                     	;# 
   618  0001                     	;# 
   619  0002                     	;# 
   620  0003                     	;# 
   621  0004                     	;# 
   622  0005                     	;# 
   623  0006                     	;# 
   624  0007                     	;# 
   625  0009                     	;# 
   626  000A                     	;# 
   627  000B                     	;# 
   628  000C                     	;# 
   629  000D                     	;# 
   630  000E                     	;# 
   631  000E                     	;# 
   632  000F                     	;# 
   633  0010                     	;# 
   634  0011                     	;# 
   635  0012                     	;# 
   636  0013                     	;# 
   637  0014                     	;# 
   638  0015                     	;# 
   639  0015                     	;# 
   640  0016                     	;# 
   641  0017                     	;# 
   642  0018                     	;# 
   643  0019                     	;# 
   644  001A                     	;# 
   645  001B                     	;# 
   646  001B                     	;# 
   647  001C                     	;# 
   648  001D                     	;# 
   649  001E                     	;# 
   650  001F                     	;# 
   651  0081                     	;# 
   652  0085                     	;# 
   653  0086                     	;# 
   654  0087                     	;# 
   655  0089                     	;# 
   656  008C                     	;# 
   657  008D                     	;# 
   658  008E                     	;# 
   659  008F                     	;# 
   660  0090                     	;# 
   661  0091                     	;# 
   662  0092                     	;# 
   663  0093                     	;# 
   664  0093                     	;# 
   665  0094                     	;# 
   666  0095                     	;# 
   667  0095                     	;# 
   668  0096                     	;# 
   669  0096                     	;# 
   670  0098                     	;# 
   671  0099                     	;# 
   672  009C                     	;# 
   673  009D                     	;# 
   674  009F                     	;# 
   675  0108                     	;# 
   676  0109                     	;# 
   677  010C                     	;# 
   678  010C                     	;# 
   679  010D                     	;# 
   680  010D                     	;# 
   681  010E                     	;# 
   682  010F                     	;# 
   683  0185                     	;# 
   684  0186                     	;# 
   685  018C                     	;# 
   686  0000                     	;# 
   687  0001                     	;# 
   688  0002                     	;# 
   689  0003                     	;# 
   690  0004                     	;# 
   691  0005                     	;# 
   692  0006                     	;# 
   693  0007                     	;# 
   694  0009                     	;# 
   695  000A                     	;# 
   696  000B                     	;# 
   697  000C                     	;# 
   698  000D                     	;# 
   699  000E                     	;# 
   700  000E                     	;# 
   701  000F                     	;# 
   702  0010                     	;# 
   703  0011                     	;# 
   704  0012                     	;# 
   705  0013                     	;# 
   706  0014                     	;# 
   707  0015                     	;# 
   708  0015                     	;# 
   709  0016                     	;# 
   710  0017                     	;# 
   711  0018                     	;# 
   712  0019                     	;# 
   713  001A                     	;# 
   714  001B                     	;# 
   715  001B                     	;# 
   716  001C                     	;# 
   717  001D                     	;# 
   718  001E                     	;# 
   719  001F                     	;# 
   720  0081                     	;# 
   721  0085                     	;# 
   722  0086                     	;# 
   723  0087                     	;# 
   724  0089                     	;# 
   725  008C                     	;# 
   726  008D                     	;# 
   727  008E                     	;# 
   728  008F                     	;# 
   729  0090                     	;# 
   730  0091                     	;# 
   731  0092                     	;# 
   732  0093                     	;# 
   733  0093                     	;# 
   734  0094                     	;# 
   735  0095                     	;# 
   736  0095                     	;# 
   737  0096                     	;# 
   738  0096                     	;# 
   739  0098                     	;# 
   740  0099                     	;# 
   741  009C                     	;# 
   742  009D                     	;# 
   743  009F                     	;# 
   744  0108                     	;# 
   745  0109                     	;# 
   746  010C                     	;# 
   747  010C                     	;# 
   748  010D                     	;# 
   749  010D                     	;# 
   750  010E                     	;# 
   751  010F                     	;# 
   752  0185                     	;# 
   753  0186                     	;# 
   754  018C                     	;# 
   755  0000                     	;# 
   756  0001                     	;# 
   757  0002                     	;# 
   758  0003                     	;# 
   759  0004                     	;# 
   760  0005                     	;# 
   761  0006                     	;# 
   762  0007                     	;# 
   763  0009                     	;# 
   764  000A                     	;# 
   765  000B                     	;# 
   766  000C                     	;# 
   767  000D                     	;# 
   768  000E                     	;# 
   769  000E                     	;# 
   770  000F                     	;# 
   771  0010                     	;# 
   772  0011                     	;# 
   773  0012                     	;# 
   774  0013                     	;# 
   775  0014                     	;# 
   776  0015                     	;# 
   777  0015                     	;# 
   778  0016                     	;# 
   779  0017                     	;# 
   780  0018                     	;# 
   781  0019                     	;# 
   782  001A                     	;# 
   783  001B                     	;# 
   784  001B                     	;# 
   785  001C                     	;# 
   786  001D                     	;# 
   787  001E                     	;# 
   788  001F                     	;# 
   789  0081                     	;# 
   790  0085                     	;# 
   791  0086                     	;# 
   792  0087                     	;# 
   793  0089                     	;# 
   794  008C                     	;# 
   795  008D                     	;# 
   796  008E                     	;# 
   797  008F                     	;# 
   798  0090                     	;# 
   799  0091                     	;# 
   800  0092                     	;# 
   801  0093                     	;# 
   802  0093                     	;# 
   803  0094                     	;# 
   804  0095                     	;# 
   805  0095                     	;# 
   806  0096                     	;# 
   807  0096                     	;# 
   808  0098                     	;# 
   809  0099                     	;# 
   810  009C                     	;# 
   811  009D                     	;# 
   812  009F                     	;# 
   813  0108                     	;# 
   814  0109                     	;# 
   815  010C                     	;# 
   816  010C                     	;# 
   817  010D                     	;# 
   818  010D                     	;# 
   819  010E                     	;# 
   820  010F                     	;# 
   821  0185                     	;# 
   822  0186                     	;# 
   823  018C                     	;# 
   824  0000                     	;# 
   825  0001                     	;# 
   826  0002                     	;# 
   827  0003                     	;# 
   828  0004                     	;# 
   829  0005                     	;# 
   830  0006                     	;# 
   831  0007                     	;# 
   832  0009                     	;# 
   833  000A                     	;# 
   834  000B                     	;# 
   835  000C                     	;# 
   836  000D                     	;# 
   837  000E                     	;# 
   838  000E                     	;# 
   839  000F                     	;# 
   840  0010                     	;# 
   841  0011                     	;# 
   842  0012                     	;# 
   843  0013                     	;# 
   844  0014                     	;# 
   845  0015                     	;# 
   846  0015                     	;# 
   847  0016                     	;# 
   848  0017                     	;# 
   849  0018                     	;# 
   850  0019                     	;# 
   851  001A                     	;# 
   852  001B                     	;# 
   853  001B                     	;# 
   854  001C                     	;# 
   855  001D                     	;# 
   856  001E                     	;# 
   857  001F                     	;# 
   858  0081                     	;# 
   859  0085                     	;# 
   860  0086                     	;# 
   861  0087                     	;# 
   862  0089                     	;# 
   863  008C                     	;# 
   864  008D                     	;# 
   865  008E                     	;# 
   866  008F                     	;# 
   867  0090                     	;# 
   868  0091                     	;# 
   869  0092                     	;# 
   870  0093                     	;# 
   871  0093                     	;# 
   872  0094                     	;# 
   873  0095                     	;# 
   874  0095                     	;# 
   875  0096                     	;# 
   876  0096                     	;# 
   877  0098                     	;# 
   878  0099                     	;# 
   879  009C                     	;# 
   880  009D                     	;# 
   881  009F                     	;# 
   882  0108                     	;# 
   883  0109                     	;# 
   884  010C                     	;# 
   885  010C                     	;# 
   886  010D                     	;# 
   887  010D                     	;# 
   888  010E                     	;# 
   889  010F                     	;# 
   890  0185                     	;# 
   891  0186                     	;# 
   892  018C                     	;# 
   893  0000                     	;# 
   894  0001                     	;# 
   895  0002                     	;# 
   896  0003                     	;# 
   897  0004                     	;# 
   898  0005                     	;# 
   899  0006                     	;# 
   900  0007                     	;# 
   901  0009                     	;# 
   902  000A                     	;# 
   903  000B                     	;# 
   904  000C                     	;# 
   905  000D                     	;# 
   906  000E                     	;# 
   907  000E                     	;# 
   908  000F                     	;# 
   909  0010                     	;# 
   910  0011                     	;# 
   911  0012                     	;# 
   912  0013                     	;# 
   913  0014                     	;# 
   914  0015                     	;# 
   915  0015                     	;# 
   916  0016                     	;# 
   917  0017                     	;# 
   918  0018                     	;# 
   919  0019                     	;# 
   920  001A                     	;# 
   921  001B                     	;# 
   922  001B                     	;# 
   923  001C                     	;# 
   924  001D                     	;# 
   925  001E                     	;# 
   926  001F                     	;# 
   927  0081                     	;# 
   928  0085                     	;# 
   929  0086                     	;# 
   930  0087                     	;# 
   931  0089                     	;# 
   932  008C                     	;# 
   933  008D                     	;# 
   934  008E                     	;# 
   935  008F                     	;# 
   936  0090                     	;# 
   937  0091                     	;# 
   938  0092                     	;# 
   939  0093                     	;# 
   940  0093                     	;# 
   941  0094                     	;# 
   942  0095                     	;# 
   943  0095                     	;# 
   944  0096                     	;# 
   945  0096                     	;# 
   946  0098                     	;# 
   947  0099                     	;# 
   948  009C                     	;# 
   949  009D                     	;# 
   950  009F                     	;# 
   951  0108                     	;# 
   952  0109                     	;# 
   953  010C                     	;# 
   954  010C                     	;# 
   955  010D                     	;# 
   956  010D                     	;# 
   957  010E                     	;# 
   958  010F                     	;# 
   959  0185                     	;# 
   960  0186                     	;# 
   961  018C                     	;# 
   962  0000                     	;# 
   963  0001                     	;# 
   964  0002                     	;# 
   965  0003                     	;# 
   966  0004                     	;# 
   967  0005                     	;# 
   968  0006                     	;# 
   969  0007                     	;# 
   970  0009                     	;# 
   971  000A                     	;# 
   972  000B                     	;# 
   973  000C                     	;# 
   974  000D                     	;# 
   975  000E                     	;# 
   976  000E                     	;# 
   977  000F                     	;# 
   978  0010                     	;# 
   979  0011                     	;# 
   980  0012                     	;# 
   981  0013                     	;# 
   982  0014                     	;# 
   983  0015                     	;# 
   984  0015                     	;# 
   985  0016                     	;# 
   986  0017                     	;# 
   987  0018                     	;# 
   988  0019                     	;# 
   989  001A                     	;# 
   990  001B                     	;# 
   991  001B                     	;# 
   992  001C                     	;# 
   993  001D                     	;# 
   994  001E                     	;# 
   995  001F                     	;# 
   996  0081                     	;# 
   997  0085                     	;# 
   998  0086                     	;# 
   999  0087                     	;# 
  1000  0089                     	;# 
  1001  008C                     	;# 
  1002  008D                     	;# 
  1003  008E                     	;# 
  1004  008F                     	;# 
  1005  0090                     	;# 
  1006  0091                     	;# 
  1007  0092                     	;# 
  1008  0093                     	;# 
  1009  0093                     	;# 
  1010  0094                     	;# 
  1011  0095                     	;# 
  1012  0095                     	;# 
  1013  0096                     	;# 
  1014  0096                     	;# 
  1015  0098                     	;# 
  1016  0099                     	;# 
  1017  009C                     	;# 
  1018  009D                     	;# 
  1019  009F                     	;# 
  1020  0108                     	;# 
  1021  0109                     	;# 
  1022  010C                     	;# 
  1023  010C                     	;# 
  1024  010D                     	;# 
  1025  010D                     	;# 
  1026  010E                     	;# 
  1027  010F                     	;# 
  1028  0185                     	;# 
  1029  0186                     	;# 
  1030  018C                     	;# 
  1031  0000                     	;# 
  1032  0001                     	;# 
  1033  0002                     	;# 
  1034  0003                     	;# 
  1035  0004                     	;# 
  1036  0005                     	;# 
  1037  0006                     	;# 
  1038  0007                     	;# 
  1039  0009                     	;# 
  1040  000A                     	;# 
  1041  000B                     	;# 
  1042  000C                     	;# 
  1043  000D                     	;# 
  1044  000E                     	;# 
  1045  000E                     	;# 
  1046  000F                     	;# 
  1047  0010                     	;# 
  1048  0011                     	;# 
  1049  0012                     	;# 
  1050  0013                     	;# 
  1051  0014                     	;# 
  1052  0015                     	;# 
  1053  0015                     	;# 
  1054  0016                     	;# 
  1055  0017                     	;# 
  1056  0018                     	;# 
  1057  0019                     	;# 
  1058  001A                     	;# 
  1059  001B                     	;# 
  1060  001B                     	;# 
  1061  001C                     	;# 
  1062  001D                     	;# 
  1063  001E                     	;# 
  1064  001F                     	;# 
  1065  0081                     	;# 
  1066  0085                     	;# 
  1067  0086                     	;# 
  1068  0087                     	;# 
  1069  0089                     	;# 
  1070  008C                     	;# 
  1071  008D                     	;# 
  1072  008E                     	;# 
  1073  008F                     	;# 
  1074  0090                     	;# 
  1075  0091                     	;# 
  1076  0092                     	;# 
  1077  0093                     	;# 
  1078  0093                     	;# 
  1079  0094                     	;# 
  1080  0095                     	;# 
  1081  0095                     	;# 
  1082  0096                     	;# 
  1083  0096                     	;# 
  1084  0098                     	;# 
  1085  0099                     	;# 
  1086  009C                     	;# 
  1087  009D                     	;# 
  1088  009F                     	;# 
  1089  0108                     	;# 
  1090  0109                     	;# 
  1091  010C                     	;# 
  1092  010C                     	;# 
  1093  010D                     	;# 
  1094  010D                     	;# 
  1095  010E                     	;# 
  1096  010F                     	;# 
  1097  0185                     	;# 
  1098  0186                     	;# 
  1099  018C                     	;# 
  1100  0000                     	;# 
  1101  0001                     	;# 
  1102  0002                     	;# 
  1103  0003                     	;# 
  1104  0004                     	;# 
  1105  0005                     	;# 
  1106  0006                     	;# 
  1107  0007                     	;# 
  1108  0009                     	;# 
  1109  000A                     	;# 
  1110  000B                     	;# 
  1111  000C                     	;# 
  1112  000D                     	;# 
  1113  000E                     	;# 
  1114  000E                     	;# 
  1115  000F                     	;# 
  1116  0010                     	;# 
  1117  0011                     	;# 
  1118  0012                     	;# 
  1119  0013                     	;# 
  1120  0014                     	;# 
  1121  0015                     	;# 
  1122  0015                     	;# 
  1123  0016                     	;# 
  1124  0017                     	;# 
  1125  0018                     	;# 
  1126  0019                     	;# 
  1127  001A                     	;# 
  1128  001B                     	;# 
  1129  001B                     	;# 
  1130  001C                     	;# 
  1131  001D                     	;# 
  1132  001E                     	;# 
  1133  001F                     	;# 
  1134  0081                     	;# 
  1135  0085                     	;# 
  1136  0086                     	;# 
  1137  0087                     	;# 
  1138  0089                     	;# 
  1139  008C                     	;# 
  1140  008D                     	;# 
  1141  008E                     	;# 
  1142  008F                     	;# 
  1143  0090                     	;# 
  1144  0091                     	;# 
  1145  0092                     	;# 
  1146  0093                     	;# 
  1147  0093                     	;# 
  1148  0094                     	;# 
  1149  0095                     	;# 
  1150  0095                     	;# 
  1151  0096                     	;# 
  1152  0096                     	;# 
  1153  0098                     	;# 
  1154  0099                     	;# 
  1155  009C                     	;# 
  1156  009D                     	;# 
  1157  009F                     	;# 
  1158  0108                     	;# 
  1159  0109                     	;# 
  1160  010C                     	;# 
  1161  010C                     	;# 
  1162  010D                     	;# 
  1163  010D                     	;# 
  1164  010E                     	;# 
  1165  010F                     	;# 
  1166  0185                     	;# 
  1167  0186                     	;# 
  1168  018C                     	;# 
  1169  0000                     	;# 
  1170  0001                     	;# 
  1171  0002                     	;# 
  1172  0003                     	;# 
  1173  0004                     	;# 
  1174  0005                     	;# 
  1175  0006                     	;# 
  1176  0007                     	;# 
  1177  0009                     	;# 
  1178  000A                     	;# 
  1179  000B                     	;# 
  1180  000C                     	;# 
  1181  000D                     	;# 
  1182  000E                     	;# 
  1183  000E                     	;# 
  1184  000F                     	;# 
  1185  0010                     	;# 
  1186  0011                     	;# 
  1187  0012                     	;# 
  1188  0013                     	;# 
  1189  0014                     	;# 
  1190  0015                     	;# 
  1191  0015                     	;# 
  1192  0016                     	;# 
  1193  0017                     	;# 
  1194  0018                     	;# 
  1195  0019                     	;# 
  1196  001A                     	;# 
  1197  001B                     	;# 
  1198  001B                     	;# 
  1199  001C                     	;# 
  1200  001D                     	;# 
  1201  001E                     	;# 
  1202  001F                     	;# 
  1203  0081                     	;# 
  1204  0085                     	;# 
  1205  0086                     	;# 
  1206  0087                     	;# 
  1207  0089                     	;# 
  1208  008C                     	;# 
  1209  008D                     	;# 
  1210  008E                     	;# 
  1211  008F                     	;# 
  1212  0090                     	;# 
  1213  0091                     	;# 
  1214  0092                     	;# 
  1215  0093                     	;# 
  1216  0093                     	;# 
  1217  0094                     	;# 
  1218  0095                     	;# 
  1219  0095                     	;# 
  1220  0096                     	;# 
  1221  0096                     	;# 
  1222  0098                     	;# 
  1223  0099                     	;# 
  1224  009C                     	;# 
  1225  009D                     	;# 
  1226  009F                     	;# 
  1227  0108                     	;# 
  1228  0109                     	;# 
  1229  010C                     	;# 
  1230  010C                     	;# 
  1231  010D                     	;# 
  1232  010D                     	;# 
  1233  010E                     	;# 
  1234  010F                     	;# 
  1235  0185                     	;# 
  1236  0186                     	;# 
  1237  018C                     	;# 
  1238  001F                     _ADCON0	set	31
  1239  001E                     _ADRES	set	30
  1240  0005                     _PORTA	set	5
  1241  0006                     _PORTB	set	6
  1242  0007                     _PORTC	set	7
  1243  0010                     _T1CON	set	16
  1244  000F                     _TMR1H	set	15
  1245  000E                     _TMR1L	set	14
  1246  005F                     _GIE	set	95
  1247  00F9                     _GO_nDONE	set	249
  1248  005E                     _PEIE	set	94
  1249  002C                     _RA4	set	44
  1250  0032                     _RB2	set	50
  1251  0033                     _RB3	set	51
  1252  0034                     _RB4	set	52
  1253  0035                     _RB5	set	53
  1254  0060                     _TMR1IF	set	96
  1255  009F                     _ADCON1	set	159
  1256  009D                     _FVRCON	set	157
  1257  0090                     _OSCCON	set	144
  1258  0085                     _TRISA	set	133
  1259  0086                     _TRISB	set	134
  1260  0087                     _TRISC	set	135
  1261  0408                     _PS0	set	1032
  1262  0409                     _PS1	set	1033
  1263  040A                     _PS2	set	1034
  1264  040B                     _PSA	set	1035
  1265  0460                     _TMR1IE	set	1120
  1266  0185                     _ANSELA	set	389
  1267  0186                     _ANSELB	set	390
  1268                           
  1269                           	psect	text0
  1270  0000                     __ptext0:	
  1271                           ; #config settings
  1272                           
  1273                           
  1274                           ;psect for function _TMR1_ISR
  1275  0000                     
  1276                           	psect	cinit
  1277  0013                     start_initialization:	
  1278  0013                     __initialization:	
  1279                           
  1280                           ; Clear objects allocated to COMMON
  1281  0013  01F7               	clrf	__pbssCOMMON& (0+127)
  1282  0014  01F8               	clrf	(__pbssCOMMON+1)& (0+127)
  1283  0015  01F9               	clrf	(__pbssCOMMON+2)& (0+127)
  1284                           
  1285                           ; Clear objects allocated to BANK0
  1286  0016  1383               	bcf	3,7	;select IRP bank0
  1287  0017  3020               	movlw	low __pbssBANK0
  1288  0018  0084               	movwf	4
  1289  0019  3056               	movlw	low (__pbssBANK0+54)
  1290  001A  158A  26FF  118A   	fcall	clear_ram0
  1291                           
  1292                           ; Clear objects allocated to BANK1
  1293  001D  30A0               	movlw	low __pbssBANK1
  1294  001E  0084               	movwf	4
  1295  001F  30CF               	movlw	low (__pbssBANK1+47)
  1296  0020  158A  26FF         	fcall	clear_ram0
  1297  0022                     end_of_initialization:	
  1298                           ;End of C runtime variable initialization code
  1299                           
  1300  0022                     __end_of__initialization:	
  1301  0022  0183               	clrf	3
  1302  0023  118A  2D4C         	ljmp	_main	;jump to C main() function
  1303                           
  1304                           	psect	bssCOMMON
  1305  0077                     __pbssCOMMON:	
  1306  0077                     _LED:	
  1307  0077                     	ds	1
  1308  0078                     _Lights:	
  1309  0078                     	ds	1
  1310  0079                     _SwDetect:	
  1311  0079                     	ds	1
  1312                           
  1313                           	psect	bssBANK0
  1314  0020                     __pbssBANK0:	
  1315  0020                     _myMain:	
  1316  0020                     	ds	8
  1317  0028                     __CDS:	
  1318  0028                     	ds	5
  1319  002D                     _PIRLED:	
  1320  002D                     	ds	4
  1321  0031                     _Timer1:	
  1322  0031                     	ds	3
  1323  0034                     _WDT:	
  1324  0034                     	ds	2
  1325  0036                     _LightsControl:	
  1326  0036                     	ds	1
  1327  0037                     _Temp:	
  1328  0037                     	ds	12
  1329  0043                     _Lights1:	
  1330  0043                     	ds	7
  1331  004A                     _VarErrLED:	
  1332  004A                     	ds	4
  1333  004E                     _VarLED1:	
  1334  004E                     	ds	4
  1335  0052                     _VarLED2:	
  1336  0052                     	ds	4
  1337                           
  1338                           	psect	bssBANK1
  1339  00A0                     __pbssBANK1:	
  1340  00A0                     __PIR:	
  1341  00A0                     	ds	47
  1342                           
  1343                           	psect	clrtext
  1344  0EFF                     clear_ram0:	
  1345                           ;	Called with FSR containing the base address, and
  1346                           ;	W with the last address+1
  1347                           
  1348  0EFF  0064               	clrwdt	;clear the watchdog before getting into this loop
  1349  0F00                     clrloop0:	
  1350  0F00  0180               	clrf	0	;clear RAM location pointed to by FSR
  1351  0F01  0A84               	incf	4,f	;increment pointer
  1352  0F02  0604               	xorwf	4,w	;XOR with final address
  1353  0F03  1903               	btfsc	3,2	;have we reached the end yet?
  1354  0F04  3400               	retlw	0	;all done for this memory range, return
  1355  0F05  0604               	xorwf	4,w	;XOR again to restore value
  1356  0F06  2F00               	goto	clrloop0	;do the next byte
  1357                           
  1358                           	psect	cstackCOMMON
  1359  0070                     __pcstackCOMMON:	
  1360  0070                     ?_setLED_Initialization:	
  1361  0070                     ?_setPIRLED_Main:	
  1362                           ; 0 bytes @ 0x0
  1363                           
  1364  0070                     ?_Fosc_Set:	
  1365                           ; 0 bytes @ 0x0
  1366                           
  1367  0070                     ?_IO_Set:	
  1368                           ; 0 bytes @ 0x0
  1369                           
  1370  0070                     ?_TMR1_Set:	
  1371                           ; 0 bytes @ 0x0
  1372                           
  1373  0070                     ?_ADC_Set:	
  1374                           ; 0 bytes @ 0x0
  1375                           
  1376  0070                     ?_WDT_Set:	
  1377                           ; 0 bytes @ 0x0
  1378                           
  1379  0070                     ?_TMR1_ISR:	
  1380                           ; 0 bytes @ 0x0
  1381                           
  1382  0070                     ??_TMR1_ISR:	
  1383                           ; 0 bytes @ 0x0
  1384                           
  1385  0070                     ?_Timeout_Counter:	
  1386                           ; 0 bytes @ 0x0
  1387                           
  1388  0070                     ?_set_TimeoutCleared:	
  1389                           ; 0 bytes @ 0x0
  1390                           
  1391  0070                     ?_WDT_Clearing:	
  1392                           ; 0 bytes @ 0x0
  1393                           
  1394  0070                     ?_myMain_Initialization:	
  1395                           ; 0 bytes @ 0x0
  1396                           
  1397  0070                     ?_Temp_Initialization:	
  1398                           ; 0 bytes @ 0x0
  1399                           
  1400  0070                     ?_Lights_Initialization:	
  1401                           ; 0 bytes @ 0x0
  1402                           
  1403  0070                     ?_PIR_Initialization:	
  1404                           ; 0 bytes @ 0x0
  1405                           
  1406  0070                     ?_getTemp_AD:	
  1407                           ; 0 bytes @ 0x0
  1408                           
  1409  0070                     ?_my_MainTimer:	
  1410                           ; 0 bytes @ 0x0
  1411                           
  1412  0070                     ?_Temp_Main:	
  1413                           ; 0 bytes @ 0x0
  1414                           
  1415  0070                     ?_Lights_Main:	
  1416                           ; 0 bytes @ 0x0
  1417                           
  1418  0070                     ?_PIR_Main:	
  1419                           ; 0 bytes @ 0x0
  1420                           
  1421  0070                     ?_setTemp_Initialization:	
  1422                           ; 0 bytes @ 0x0
  1423                           
  1424  0070                     ?_setTemp_Main:	
  1425                           ; 0 bytes @ 0x0
  1426                           
  1427  0070                     ?_setLights_Initialization:	
  1428                           ; 0 bytes @ 0x0
  1429                           
  1430  0070                     ?_setLights_Main:	
  1431                           ; 0 bytes @ 0x0
  1432                           
  1433  0070                     ?_Lights_Control:	
  1434                           ; 0 bytes @ 0x0
  1435                           
  1436  0070                     ?_Lights_Close:	
  1437                           ; 0 bytes @ 0x0
  1438                           
  1439  0070                     ?_setLights_Line:	
  1440                           ; 0 bytes @ 0x0
  1441                           
  1442  0070                     ?_CDS_Initialization:	
  1443                           ; 0 bytes @ 0x0
  1444                           
  1445  0070                     ?_CDS_Main:	
  1446                           ; 0 bytes @ 0x0
  1447                           
  1448  0070                     ?_LedPointSelect:	
  1449                           ; 0 bytes @ 0x0
  1450                           
  1451  0070                     ?_LED_Initialization:	
  1452                           ; 0 bytes @ 0x0
  1453                           
  1454  0070                     ?_LED_Main:	
  1455                           ; 0 bytes @ 0x0
  1456                           
  1457  0070                     ?_Mcu_Initialization:	
  1458                           ; 0 bytes @ 0x0
  1459                           
  1460  0070                     ?_ISR:	
  1461                           ; 0 bytes @ 0x0
  1462                           
  1463  0070                     ??_ISR:	
  1464                           ; 0 bytes @ 0x0
  1465                           
  1466  0070                     ?_WDT_Main:	
  1467                           ; 0 bytes @ 0x0
  1468                           
  1469  0070                     ?_setMain_Exception:	
  1470                           ; 0 bytes @ 0x0
  1471                           
  1472  0070                     ?_LightsPointSelect:	
  1473                           ; 0 bytes @ 0x0
  1474                           
  1475  0070                     ?_getAll_Lights_Line:	
  1476                           ; 0 bytes @ 0x0
  1477                           
  1478  0070                     ?_getLights_Status:	
  1479                           ; 1 bytes @ 0x0
  1480                           
  1481  0070                     ?_getCDS_Status:	
  1482                           ; 1 bytes @ 0x0
  1483                           
  1484  0070                     ?_getMain_LightsStatus:	
  1485                           ; 1 bytes @ 0x0
  1486                           
  1487  0070                     ?_getMain_All_Error_Status:	
  1488                           ; 1 bytes @ 0x0
  1489                           
  1490                           
  1491                           ; 1 bytes @ 0x0
  1492  0070                     	ds	4
  1493  0074                     ??_Fosc_Set:	
  1494  0074                     ??_IO_Set:	
  1495                           ; 0 bytes @ 0x4
  1496                           
  1497  0074                     ??_TMR1_Set:	
  1498                           ; 0 bytes @ 0x4
  1499                           
  1500  0074                     ??_ADC_Set:	
  1501                           ; 0 bytes @ 0x4
  1502                           
  1503  0074                     ??_WDT_Set:	
  1504                           ; 0 bytes @ 0x4
  1505                           
  1506  0074                     ??_Timeout_Counter:	
  1507                           ; 0 bytes @ 0x4
  1508                           
  1509  0074                     ??_set_TimeoutCleared:	
  1510                           ; 0 bytes @ 0x4
  1511                           
  1512  0074                     ??_WDT_Clearing:	
  1513                           ; 0 bytes @ 0x4
  1514                           
  1515  0074                     ??_myMain_Initialization:	
  1516                           ; 0 bytes @ 0x4
  1517                           
  1518  0074                     ??_Temp_Initialization:	
  1519                           ; 0 bytes @ 0x4
  1520                           
  1521  0074                     ??_my_MainTimer:	
  1522                           ; 0 bytes @ 0x4
  1523                           
  1524  0074                     ??_setTemp_Initialization:	
  1525                           ; 0 bytes @ 0x4
  1526                           
  1527  0074                     ??_CDS_Initialization:	
  1528                           ; 0 bytes @ 0x4
  1529                           
  1530  0074                     ??_CDS_Main:	
  1531                           ; 0 bytes @ 0x4
  1532                           
  1533  0074                     ??_getCDS_Status:	
  1534                           ; 0 bytes @ 0x4
  1535                           
  1536  0074                     ??_LedPointSelect:	
  1537                           ; 0 bytes @ 0x4
  1538                           
  1539  0074                     ??_WDT_Main:	
  1540                           ; 0 bytes @ 0x4
  1541                           
  1542  0074                     ??_LightsPointSelect:	
  1543                           ; 0 bytes @ 0x4
  1544                           
  1545  0074                     ??___awdiv:	
  1546                           ; 0 bytes @ 0x4
  1547                           
  1548  0074                     ??___lwdiv:	
  1549                           ; 0 bytes @ 0x4
  1550                           
  1551  0074                     ?_getAD:	
  1552                           ; 0 bytes @ 0x4
  1553                           
  1554  0074                     getCDS_Status@status:	
  1555                           ; 1 bytes @ 0x4
  1556                           
  1557  0074                     getAD@adcon1:	
  1558                           ; 1 bytes @ 0x4
  1559                           
  1560                           
  1561                           ; 1 bytes @ 0x4
  1562  0074                     	ds	1
  1563  0075                     ??_getAD:	
  1564  0075                     ??_Mcu_Initialization:	
  1565                           ; 0 bytes @ 0x5
  1566                           
  1567  0075                     ??_getMain_All_Error_Status:	
  1568                           ; 0 bytes @ 0x5
  1569                           
  1570  0075                     LedPointSelect@led:	
  1571                           ; 0 bytes @ 0x5
  1572                           
  1573  0075                     getAD@adcon0:	
  1574                           ; 1 bytes @ 0x5
  1575                           
  1576  0075                     LightsPointSelect@lights:	
  1577                           ; 1 bytes @ 0x5
  1578                           
  1579                           
  1580                           ; 1 bytes @ 0x5
  1581  0075                     	ds	1
  1582  0076                     ?_setLED:	
  1583  0076                     ?_getPIR_AD:	
  1584                           ; 0 bytes @ 0x6
  1585                           
  1586  0076                     ??_getAll_Lights_Line:	
  1587                           ; 0 bytes @ 0x6
  1588                           
  1589  0076                     ?_setLights_Trigger:	
  1590                           ; 0 bytes @ 0x6
  1591                           
  1592  0076                     ??_getLights_Status:	
  1593                           ; 0 bytes @ 0x6
  1594                           
  1595  0076                     ??_setLights_Initialization:	
  1596                           ; 0 bytes @ 0x6
  1597                           
  1598  0076                     ??_setLights_Line:	
  1599                           ; 0 bytes @ 0x6
  1600                           
  1601  0076                     ?_getCDS_AD:	
  1602                           ; 0 bytes @ 0x6
  1603                           
  1604  0076                     ??_getMain_LightsStatus:	
  1605                           ; 0 bytes @ 0x6
  1606                           
  1607  0076                     getCDS_AD@channel2:	
  1608                           ; 0 bytes @ 0x6
  1609                           
  1610  0076                     setLED@command:	
  1611                           ; 1 bytes @ 0x6
  1612                           
  1613  0076                     getTemp_AD@channel:	
  1614                           ; 1 bytes @ 0x6
  1615                           
  1616  0076                     getPIR_AD@channel2:	
  1617                           ; 1 bytes @ 0x6
  1618                           
  1619  0076                     setLights_Initialization@lights:	
  1620                           ; 1 bytes @ 0x6
  1621                           
  1622  0076                     Lights_Control@lights:	
  1623                           ; 1 bytes @ 0x6
  1624                           
  1625  0076                     setLights_Trigger@command:	
  1626                           ; 1 bytes @ 0x6
  1627                           
  1628  0076                     setLights_Line@lights:	
  1629                           ; 1 bytes @ 0x6
  1630                           
  1631  0076                     getAll_Lights_Line@line:	
  1632                           ; 1 bytes @ 0x6
  1633                           
  1634                           
  1635                           ; 1 bytes @ 0x6
  1636  0076                     	ds	1
  1637  0077                     ??_setLED_Initialization:	
  1638  0077                     ??_setLED:	
  1639                           ; 0 bytes @ 0x7
  1640                           
  1641  0077                     ??_Lights_Initialization:	
  1642                           ; 0 bytes @ 0x7
  1643                           
  1644  0077                     ??_Temp_Main:	
  1645                           ; 0 bytes @ 0x7
  1646                           
  1647  0077                     ??_Lights_Main:	
  1648                           ; 0 bytes @ 0x7
  1649                           
  1650  0077                     ??_setLights_Main:	
  1651                           ; 0 bytes @ 0x7
  1652                           
  1653  0077                     ??_LED_Initialization:	
  1654                           ; 0 bytes @ 0x7
  1655                           
  1656  0077                     ??_LED_Main:	
  1657                           ; 0 bytes @ 0x7
  1658                           
  1659                           
  1660                           	psect	cstackBANK0
  1661  0056                     __pcstackBANK0:	
  1662                           ; 0 bytes @ 0x7
  1663                           
  1664  0056                     ??_getTemp_AD:	
  1665  0056                     ??_setLights_Trigger:	
  1666                           ; 0 bytes @ 0x0
  1667                           
  1668  0056                     ??_Lights_Control:	
  1669                           ; 0 bytes @ 0x0
  1670                           
  1671  0056                     ?_setLights:	
  1672                           ; 0 bytes @ 0x0
  1673                           
  1674  0056                     ??_getCDS_AD:	
  1675                           ; 0 bytes @ 0x0
  1676                           
  1677  0056                     ?___awdiv:	
  1678                           ; 0 bytes @ 0x0
  1679                           
  1680  0056                     ?___lwdiv:	
  1681                           ; 2 bytes @ 0x0
  1682                           
  1683  0056                     setLED@led:	
  1684                           ; 2 bytes @ 0x0
  1685                           
  1686  0056                     setLights@status:	
  1687                           ; 1 bytes @ 0x0
  1688                           
  1689  0056                     getLights_Status@lights:	
  1690                           ; 1 bytes @ 0x0
  1691                           
  1692  0056                     _getMain_All_Error_Status$2063:	
  1693                           ; 1 bytes @ 0x0
  1694                           
  1695  0056                     ___awdiv@divisor:	
  1696                           ; 2 bytes @ 0x0
  1697                           
  1698  0056                     ___lwdiv@divisor:	
  1699                           ; 2 bytes @ 0x0
  1700                           
  1701                           
  1702                           ; 2 bytes @ 0x0
  1703  0056                     	ds	1
  1704  0057                     ??_setPIRLED_Main:	
  1705  0057                     ??_PIR_Initialization:	
  1706                           ; 0 bytes @ 0x1
  1707                           
  1708  0057                     ??_setLights:	
  1709                           ; 0 bytes @ 0x1
  1710                           
  1711  0057                     setLED_Initialization@led:	
  1712                           ; 0 bytes @ 0x1
  1713                           
  1714  0057                     getLights_Status@status:	
  1715                           ; 1 bytes @ 0x1
  1716                           
  1717  0057                     setLights_Trigger@lights:	
  1718                           ; 1 bytes @ 0x1
  1719                           
  1720                           
  1721                           ; 1 bytes @ 0x1
  1722  0057                     	ds	1
  1723  0058                     ??_setMain_Exception:	
  1724  0058                     getCDS_AD@i:	
  1725                           ; 0 bytes @ 0x2
  1726                           
  1727  0058                     setPIRLED_Main@count:	
  1728                           ; 1 bytes @ 0x2
  1729                           
  1730  0058                     getMain_LightsStatus@count:	
  1731                           ; 1 bytes @ 0x2
  1732                           
  1733  0058                     setLights@lights:	
  1734                           ; 1 bytes @ 0x2
  1735                           
  1736  0058                     _getMain_All_Error_Status$2065:	
  1737                           ; 1 bytes @ 0x2
  1738                           
  1739  0058                     ___awdiv@dividend:	
  1740                           ; 2 bytes @ 0x2
  1741                           
  1742  0058                     ___lwdiv@dividend:	
  1743                           ; 2 bytes @ 0x2
  1744                           
  1745                           
  1746                           ; 2 bytes @ 0x2
  1747  0058                     	ds	1
  1748  0059                     getCDS_AD@j:	
  1749  0059                     setLights_Main@lights:	
  1750                           ; 1 bytes @ 0x3
  1751                           
  1752  0059                     getMain_LightsStatus@i:	
  1753                           ; 1 bytes @ 0x3
  1754                           
  1755                           
  1756                           ; 2 bytes @ 0x3
  1757  0059                     	ds	1
  1758  005A                     getCDS_AD@channel1:	
  1759  005A                     setMain_Exception@buz:	
  1760                           ; 1 bytes @ 0x4
  1761                           
  1762  005A                     getMain_All_Error_Status@command:	
  1763                           ; 1 bytes @ 0x4
  1764                           
  1765  005A                     ___awdiv@counter:	
  1766                           ; 1 bytes @ 0x4
  1767                           
  1768  005A                     ___lwdiv@counter:	
  1769                           ; 1 bytes @ 0x4
  1770                           
  1771                           
  1772                           ; 1 bytes @ 0x4
  1773  005A                     	ds	1
  1774  005B                     setMain_Exception@status:	
  1775  005B                     getMain_LightsStatus@status:	
  1776                           ; 1 bytes @ 0x5
  1777                           
  1778  005B                     getMain_All_Error_Status@status:	
  1779                           ; 1 bytes @ 0x5
  1780                           
  1781  005B                     ___awdiv@sign:	
  1782                           ; 1 bytes @ 0x5
  1783                           
  1784  005B                     ___lwdiv@quotient:	
  1785                           ; 1 bytes @ 0x5
  1786                           
  1787                           
  1788                           ; 2 bytes @ 0x5
  1789  005B                     	ds	1
  1790  005C                     ??_Lights_Close:	
  1791  005C                     _setMain_Exception$2047:	
  1792                           ; 0 bytes @ 0x6
  1793                           
  1794  005C                     ___awdiv@quotient:	
  1795                           ; 2 bytes @ 0x6
  1796                           
  1797                           
  1798                           ; 2 bytes @ 0x6
  1799  005C                     	ds	2
  1800  005E                     ??_getPIR_AD:	
  1801  005E                     ??_setTemp_Main:	
  1802                           ; 0 bytes @ 0x8
  1803                           
  1804  005E                     setMain_Exception@command:	
  1805                           ; 0 bytes @ 0x8
  1806                           
  1807                           
  1808                           ; 1 bytes @ 0x8
  1809  005E                     	ds	1
  1810  005F                     ??_PIR_Main:	
  1811                           
  1812                           ; 0 bytes @ 0x9
  1813  005F                     	ds	2
  1814  0061                     getPIR_AD@j:	
  1815                           
  1816                           ; 1 bytes @ 0xB
  1817  0061                     	ds	1
  1818  0062                     getPIR_AD@channel1:	
  1819                           
  1820                           ; 1 bytes @ 0xC
  1821  0062                     	ds	1
  1822  0063                     getPIR_AD@i:	
  1823                           
  1824                           ; 1 bytes @ 0xD
  1825  0063                     	ds	1
  1826  0064                     _PIR_Main$2715:	
  1827                           
  1828                           ; 2 bytes @ 0xE
  1829  0064                     	ds	2
  1830  0066                     PIR_Main@error:	
  1831                           
  1832                           ; 1 bytes @ 0x10
  1833  0066                     	ds	1
  1834  0067                     ?_main:	
  1835  0067                     main@argc:	
  1836                           ; 2 bytes @ 0x11
  1837                           
  1838                           
  1839                           ; 2 bytes @ 0x11
  1840  0067                     	ds	2
  1841  0069                     main@argv:	
  1842                           
  1843                           ; 2 bytes @ 0x13
  1844  0069                     	ds	2
  1845  006B                     ??_main:	
  1846                           
  1847                           ; 0 bytes @ 0x15
  1848  006B                     	ds	1
  1849                           
  1850                           	psect	maintext
  1851  054C                     __pmaintext:	
  1852 ;;
  1853 ;;Main: autosize = 0, tempsize = 1, incstack = 0, save=0
  1854 ;;
  1855 ;; *************** function _main *****************
  1856 ;; Defined at:
  1857 ;;		line 7 in file "../src/Main_B1.c"
  1858 ;; Parameters:    Size  Location     Type
  1859 ;;  argc            2   17[BANK0 ] int 
  1860 ;;  argv            2   19[BANK0 ] PTR PTR unsigned char 
  1861 ;; Auto vars:     Size  Location     Type
  1862 ;;		None
  1863 ;; Return value:  Size  Location     Type
  1864 ;;                  2   17[BANK0 ] int 
  1865 ;; Registers used:
  1866 ;;		wreg, fsr0l, fsr0h, status,2, status,0, pclath, cstack
  1867 ;; Tracked objects:
  1868 ;;		On entry : 17F/0
  1869 ;;		On exit  : 0/0
  1870 ;;		Unchanged: 0/0
  1871 ;; Data sizes:     COMMON   BANK0   BANK1   BANK2
  1872 ;;      Params:         0       4       0       0
  1873 ;;      Locals:         0       0       0       0
  1874 ;;      Temps:          0       1       0       0
  1875 ;;      Totals:         0       5       0       0
  1876 ;;Total ram usage:        5 bytes
  1877 ;; Hardware stack levels required when called:    7
  1878 ;; This function calls:
  1879 ;;		_CDS_Initialization
  1880 ;;		_CDS_Main
  1881 ;;		_LED_Initialization
  1882 ;;		_LED_Main
  1883 ;;		_Lights_Initialization
  1884 ;;		_Lights_Main
  1885 ;;		_Mcu_Initialization
  1886 ;;		_PIR_Initialization
  1887 ;;		_PIR_Main
  1888 ;;		_Temp_Initialization
  1889 ;;		_Temp_Main
  1890 ;;		_WDT_Main
  1891 ;;		_getCDS_AD
  1892 ;;		_getPIR_AD
  1893 ;;		_getTemp_AD
  1894 ;;		_myMain_Initialization
  1895 ;;		_my_MainTimer
  1896 ;; This function is called by:
  1897 ;;		Startup code after reset
  1898 ;; This function uses a non-reentrant model
  1899 ;;
  1900                           
  1901                           
  1902                           ;psect for function _main
  1903  054C                     _main:	
  1904                           
  1905                           ;Main_B1.c: 8: myMain_Initialization();
  1906                           
  1907                           ;incstack = 0
  1908                           ; Regs used in _main: [wreg-fsr0h+status,2+status,0+pclath+cstack]
  1909  054C  158A  26CE  118A   	fcall	_myMain_Initialization
  1910                           
  1911                           ;Main_B1.c: 9: Mcu_Initialization();
  1912  054F  158A  275D  118A   	fcall	_Mcu_Initialization
  1913                           
  1914                           ;Main_B1.c: 10: ;;
  1915                           ;Main_B1.c: 11: LED_Initialization();
  1916  0552  158A  271C  118A   	fcall	_LED_Initialization
  1917                           
  1918                           ;Main_B1.c: 12: ;;
  1919                           ;Main_B1.c: 14: ;;
  1920                           ;Main_B1.c: 15: Temp_Initialization();
  1921  0555  158A  26D2  118A   	fcall	_Temp_Initialization
  1922                           
  1923                           ;Main_B1.c: 16: ;;
  1924                           ;Main_B1.c: 17: ;;
  1925                           ;Main_B1.c: 18: ;;
  1926                           ;Main_B1.c: 20: ;;
  1927                           ;Main_B1.c: 21: Lights_Initialization();
  1928  0558  158A  26DC  118A   	fcall	_Lights_Initialization
  1929                           
  1930                           ;Main_B1.c: 22: CDS_Initialization();
  1931  055B  158A  26D8  118A   	fcall	_CDS_Initialization
  1932                           
  1933                           ;Main_B1.c: 23: PIR_Initialization();
  1934  055E  158A  27B0  118A   	fcall	_PIR_Initialization
  1935                           
  1936                           ;Main_B1.c: 24: ;;
  1937                           ;Main_B1.c: 25: ;;
  1938                           ;Main_B1.c: 26: __nop();
  1939  0561  0000               	nop
  1940  0562                     l3965:	
  1941                           ;Main_B1.c: 27: ;;
  1942                           ;Main_B1.c: 29: while (1) {
  1943                           
  1944                           
  1945                           ;Main_B1.c: 31: if (myMain.PowerON == 1) {
  1946  0562  1283               	bcf	3,5	;RP0=0, select bank0
  1947  0563  1303               	bcf	3,6	;RP1=0, select bank0
  1948  0564  1C20               	btfss	_myMain,0
  1949  0565  2D7E               	goto	l3971
  1950                           
  1951                           ;Main_B1.c: 41: getTemp_AD(0x11);
  1952  0566  3011               	movlw	17
  1953  0567  118A  275A  118A   	fcall	_getTemp_AD
  1954                           
  1955                           ;Main_B1.c: 49: getCDS_AD(0x09, 0x31);
  1956  056A  3031               	movlw	49
  1957  056B  1283               	bcf	3,5	;RP0=0, select bank0
  1958  056C  1303               	bcf	3,6	;RP1=0, select bank0
  1959  056D  00EB               	movwf	??_main
  1960  056E  086B               	movf	??_main,w
  1961  056F  00F6               	movwf	getCDS_AD@channel2
  1962  0570  3009               	movlw	9
  1963  0571  118A  2708  118A   	fcall	_getCDS_AD
  1964                           
  1965                           ;Main_B1.c: 53: getPIR_AD(0x05, 0x0d);
  1966  0574  300D               	movlw	13
  1967  0575  1283               	bcf	3,5	;RP0=0, select bank0
  1968  0576  1303               	bcf	3,6	;RP1=0, select bank0
  1969  0577  00EB               	movwf	??_main
  1970  0578  086B               	movf	??_main,w
  1971  0579  00F6               	movwf	getPIR_AD@channel2
  1972  057A  3005               	movlw	5
  1973  057B  118A  21F4  118A   	fcall	_getPIR_AD
  1974  057E                     l3971:	
  1975                           
  1976                           ;Main_B1.c: 56: }
  1977                           ;Main_B1.c: 92: if (Timer1.Timeout == 1) {
  1978  057E  1283               	bcf	3,5	;RP0=0, select bank0
  1979  057F  1303               	bcf	3,6	;RP1=0, select bank0
  1980  0580  1C31               	btfss	_Timer1,0
  1981  0581  2D62               	goto	l3965
  1982                           
  1983                           ;Main_B1.c: 93: Timer1.Timeout = 0;
  1984  0582  1031               	bcf	_Timer1,0
  1985                           
  1986                           ;Main_B1.c: 94: my_MainTimer();
  1987  0583  118A  27EC  118A   	fcall	_my_MainTimer
  1988                           
  1989                           ;Main_B1.c: 95: WDT_Main();
  1990  0586  158A  278D  118A   	fcall	_WDT_Main
  1991                           
  1992                           ;Main_B1.c: 96: ;;
  1993                           ;Main_B1.c: 97: ;;
  1994                           ;Main_B1.c: 98: if (myMain.PowerON == 1) {
  1995  0589  1283               	bcf	3,5	;RP0=0, select bank0
  1996  058A  1303               	bcf	3,6	;RP1=0, select bank0
  1997  058B  1C20               	btfss	_myMain,0
  1998  058C  2D62               	goto	l3965
  1999                           
  2000                           ;Main_B1.c: 99: ;;
  2001                           ;Main_B1.c: 101: LED_Main();
  2002  058D  158A  26CF  118A   	fcall	_LED_Main
  2003                           
  2004                           ;Main_B1.c: 102: ;;
  2005                           ;Main_B1.c: 104: ;;
  2006                           ;Main_B1.c: 105: Temp_Main();
  2007  0590  158A  26D5  118A   	fcall	_Temp_Main
  2008                           
  2009                           ;Main_B1.c: 106: ;;
  2010                           ;Main_B1.c: 107: ;;
  2011                           ;Main_B1.c: 109: Lights_Main();
  2012  0593  158A  2711  118A   	fcall	_Lights_Main
  2013                           
  2014                           ;Main_B1.c: 110: ;;
  2015                           ;Main_B1.c: 111: ;;
  2016                           ;Main_B1.c: 112: CDS_Main();
  2017  0596  118A  26A3  118A   	fcall	_CDS_Main
  2018                           
  2019                           ;Main_B1.c: 113: PIR_Main();
  2020  0599  118A  2025  118A   	fcall	_PIR_Main
  2021                           
  2022                           ;Main_B1.c: 115: ;;
  2023                           ;Main_B1.c: 116: ;;
  2024                           ;Main_B1.c: 117: ;;
  2025  059C  2D62               	goto	l3965
  2026  059D                     __end_of_main:	
  2027                           ;Main_B1.c: 125: }
  2028                           ;Main_B1.c: 126: }
  2029                           ;Main_B1.c: 160: }
  2030                           ;Main_B1.c: 161: return (0);
  2031                           ;	Return value of _main is never used
  2032                           
  2033                           
  2034                           	psect	text1
  2035  07EC                     __ptext1:	
  2036 ;; *************** function _my_MainTimer *****************
  2037 ;; Defined at:
  2038 ;;		line 180 in file "../src/Main_B1.c"
  2039 ;; Parameters:    Size  Location     Type
  2040 ;;		None
  2041 ;; Auto vars:     Size  Location     Type
  2042 ;;		None
  2043 ;; Return value:  Size  Location     Type
  2044 ;;		None               void
  2045 ;; Registers used:
  2046 ;;		wreg, status,2
  2047 ;; Tracked objects:
  2048 ;;		On entry : 0/0
  2049 ;;		On exit  : 0/0
  2050 ;;		Unchanged: 0/0
  2051 ;; Data sizes:     COMMON   BANK0   BANK1   BANK2
  2052 ;;      Params:         0       0       0       0
  2053 ;;      Locals:         0       0       0       0
  2054 ;;      Temps:          0       0       0       0
  2055 ;;      Totals:         0       0       0       0
  2056 ;;Total ram usage:        0 bytes
  2057 ;; Hardware stack levels used:    1
  2058 ;; Hardware stack levels required when called:    2
  2059 ;; This function calls:
  2060 ;;		Nothing
  2061 ;; This function is called by:
  2062 ;;		_main
  2063 ;; This function uses a non-reentrant model
  2064 ;;
  2065                           
  2066                           
  2067                           ;psect for function _my_MainTimer
  2068  07EC                     _my_MainTimer:	
  2069                           
  2070                           ;Main_B1.c: 182: if (myMain.PowerON == 0) {
  2071                           
  2072                           ;incstack = 0
  2073                           ; Regs used in _my_MainTimer: [wreg+status,2]
  2074  07EC  1283               	bcf	3,5	;RP0=0, select bank0
  2075  07ED  1303               	bcf	3,6	;RP1=0, select bank0
  2076  07EE  1820               	btfsc	_myMain,0
  2077  07EF  0008               	return
  2078                           
  2079                           ;Main_B1.c: 183: myMain.PowerCount++;
  2080  07F0  3001               	movlw	1
  2081  07F1  07A2               	addwf	_myMain+2,f
  2082  07F2  1803               	skipnc
  2083  07F3  0AA3               	incf	_myMain+3,f
  2084  07F4  3000               	movlw	0
  2085  07F5  07A3               	addwf	_myMain+3,f
  2086                           
  2087                           ;Main_B1.c: 184: if (myMain.PowerCount == 150)
  2088  07F6  3096               	movlw	150
  2089  07F7  0622               	xorwf	_myMain+2,w
  2090  07F8  0423               	iorwf	_myMain+3,w
  2091  07F9  1D03               	skipz
  2092  07FA  0008               	return
  2093                           
  2094                           ;Main_B1.c: 185: {
  2095                           ;Main_B1.c: 186: myMain.PowerCount = 0;
  2096  07FB  01A2               	clrf	_myMain+2
  2097  07FC  01A3               	clrf	_myMain+3
  2098                           
  2099                           ;Main_B1.c: 187: myMain.PowerON = 1;
  2100  07FD  1420               	bsf	_myMain,0
  2101                           
  2102                           ;Main_B1.c: 193: ;;
  2103                           ;Main_B1.c: 194: myMain.SelfTest = 1;
  2104  07FE  1620               	bsf	_myMain,4
  2105                           
  2106                           ;Main_B1.c: 203: }
  2107                           ;Main_B1.c: 204: } else {
  2108  07FF  0008               	return
  2109  0800                     __end_of_my_MainTimer:	
  2110                           
  2111                           	psect	text2
  2112  0ECE                     __ptext2:	
  2113 ;; *************** function _myMain_Initialization *****************
  2114 ;; Defined at:
  2115 ;;		line 167 in file "../src/Main_B1.c"
  2116 ;; Parameters:    Size  Location     Type
  2117 ;;		None
  2118 ;; Auto vars:     Size  Location     Type
  2119 ;;		None
  2120 ;; Return value:  Size  Location     Type
  2121 ;;		None               void
  2122 ;; Registers used:
  2123 ;;		None
  2124 ;; Tracked objects:
  2125 ;;		On entry : 0/0
  2126 ;;		On exit  : 0/0
  2127 ;;		Unchanged: 0/0
  2128 ;; Data sizes:     COMMON   BANK0   BANK1   BANK2
  2129 ;;      Params:         0       0       0       0
  2130 ;;      Locals:         0       0       0       0
  2131 ;;      Temps:          0       0       0       0
  2132 ;;      Totals:         0       0       0       0
  2133 ;;Total ram usage:        0 bytes
  2134 ;; Hardware stack levels used:    1
  2135 ;; Hardware stack levels required when called:    2
  2136 ;; This function calls:
  2137 ;;		Nothing
  2138 ;; This function is called by:
  2139 ;;		_main
  2140 ;; This function uses a non-reentrant model
  2141 ;;
  2142                           
  2143                           
  2144                           ;psect for function _myMain_Initialization
  2145  0ECE                     _myMain_Initialization:	
  2146                           
  2147                           ;incstack = 0
  2148                           ; Regs used in _myMain_Initialization: []
  2149  0ECE  0008               	return
  2150  0ECF                     __end_of_myMain_Initialization:	
  2151                           
  2152                           	psect	text3
  2153  075A                     __ptext3:	
  2154 ;; *************** function _getTemp_AD *****************
  2155 ;; Defined at:
  2156 ;;		line 15 in file "../src/OverTemperature_B1.c"
  2157 ;; Parameters:    Size  Location     Type
  2158 ;;  channel         1    wreg     unsigned char 
  2159 ;; Auto vars:     Size  Location     Type
  2160 ;;  channel         1    6[COMMON] unsigned char 
  2161 ;; Return value:  Size  Location     Type
  2162 ;;		None               void
  2163 ;; Registers used:
  2164 ;;		wreg, status,2, status,0, pclath, cstack
  2165 ;; Tracked objects:
  2166 ;;		On entry : 0/0
  2167 ;;		On exit  : 0/0
  2168 ;;		Unchanged: 0/0
  2169 ;; Data sizes:     COMMON   BANK0   BANK1   BANK2
  2170 ;;      Params:         0       0       0       0
  2171 ;;      Locals:         1       0       0       0
  2172 ;;      Temps:          0       2       0       0
  2173 ;;      Totals:         1       2       0       0
  2174 ;;Total ram usage:        3 bytes
  2175 ;; Hardware stack levels used:    1
  2176 ;; Hardware stack levels required when called:    4
  2177 ;; This function calls:
  2178 ;;		_getAD
  2179 ;; This function is called by:
  2180 ;;		_main
  2181 ;; This function uses a non-reentrant model
  2182 ;;
  2183                           
  2184                           
  2185                           ;psect for function _getTemp_AD
  2186  075A                     _getTemp_AD:	
  2187                           
  2188                           ;incstack = 0
  2189                           ; Regs used in _getTemp_AD: [wreg+status,2+status,0+pclath+cstack]
  2190                           ;getTemp_AD@channel stored from wreg
  2191  075A  00F6               	movwf	getTemp_AD@channel
  2192                           
  2193                           ;OverTemperature_B1.c: 32: if (Temp.ADtoGO == 1) {
  2194  075B  1283               	bcf	3,5	;RP0=0, select bank0
  2195  075C  1303               	bcf	3,6	;RP1=0, select bank0
  2196  075D  1D37               	btfss	_Temp,2
  2197  075E  0008               	return
  2198                           
  2199                           ;OverTemperature_B1.c: 33: Temp.GO = 1;
  2200  075F  1637               	bsf	_Temp,4
  2201                           
  2202                           ;OverTemperature_B1.c: 34: Temp.ADRES = getAD(channel, 0x70);
  2203  0760  3070               	movlw	112
  2204  0761  00D6               	movwf	??_getTemp_AD
  2205  0762  0856               	movf	??_getTemp_AD,w
  2206  0763  00F4               	movwf	getAD@adcon1
  2207  0764  0876               	movf	getTemp_AD@channel,w
  2208  0765  118A  277F  118A   	fcall	_getAD
  2209  0768  1283               	bcf	3,5	;RP0=0, select bank0
  2210  0769  1303               	bcf	3,6	;RP1=0, select bank0
  2211  076A  00D7               	movwf	??_getTemp_AD+1
  2212  076B  0857               	movf	??_getTemp_AD+1,w
  2213  076C  00C0               	movwf	_Temp+9
  2214                           
  2215                           ;OverTemperature_B1.c: 35: if (Temp.ADH[0] < Temp.ADRES) {
  2216  076D  0840               	movf	_Temp+9,w
  2217  076E  023E               	subwf	_Temp+7,w
  2218  076F  1803               	skipnc
  2219  0770  2F76               	goto	l3691
  2220                           
  2221                           ;OverTemperature_B1.c: 36: Temp.ADH[0] = Temp.ADRES;
  2222  0771  0840               	movf	_Temp+9,w
  2223  0772  00D6               	movwf	??_getTemp_AD
  2224  0773  0856               	movf	??_getTemp_AD,w
  2225  0774  00BE               	movwf	_Temp+7
  2226                           
  2227                           ;OverTemperature_B1.c: 37: } else if (Temp.ADH[1] < Temp.ADRES) {
  2228  0775  0008               	return
  2229  0776                     l3691:	
  2230  0776  0840               	movf	_Temp+9,w
  2231  0777  023F               	subwf	_Temp+8,w
  2232  0778  1803               	skipnc
  2233  0779  0008               	return
  2234                           
  2235                           ;OverTemperature_B1.c: 38: Temp.ADH[1] = Temp.ADRES;
  2236  077A  0840               	movf	_Temp+9,w
  2237  077B  00D6               	movwf	??_getTemp_AD
  2238  077C  0856               	movf	??_getTemp_AD,w
  2239  077D  00BF               	movwf	_Temp+8
  2240  077E  0008               	return
  2241  077F                     __end_of_getTemp_AD:	
  2242                           
  2243                           	psect	text4
  2244  01F4                     __ptext4:	
  2245 ;; *************** function _getPIR_AD *****************
  2246 ;; Defined at:
  2247 ;;		line 167 in file "../src/PIR_B1.c"
  2248 ;; Parameters:    Size  Location     Type
  2249 ;;  channel1        1    wreg     unsigned char 
  2250 ;;  channel2        1    6[COMMON] unsigned char 
  2251 ;; Auto vars:     Size  Location     Type
  2252 ;;  channel1        1   12[BANK0 ] unsigned char 
  2253 ;;  i               1   13[BANK0 ] unsigned char 
  2254 ;;  j               1   11[BANK0 ] unsigned char 
  2255 ;; Return value:  Size  Location     Type
  2256 ;;		None               void
  2257 ;; Registers used:
  2258 ;;		wreg, fsr0l, fsr0h, status,2, status,0, pclath, cstack
  2259 ;; Tracked objects:
  2260 ;;		On entry : 0/0
  2261 ;;		On exit  : 0/0
  2262 ;;		Unchanged: 0/0
  2263 ;; Data sizes:     COMMON   BANK0   BANK1   BANK2
  2264 ;;      Params:         1       0       0       0
  2265 ;;      Locals:         0       3       0       0
  2266 ;;      Temps:          0       3       0       0
  2267 ;;      Totals:         1       6       0       0
  2268 ;;Total ram usage:        7 bytes
  2269 ;; Hardware stack levels used:    1
  2270 ;; Hardware stack levels required when called:    4
  2271 ;; This function calls:
  2272 ;;		___awdiv
  2273 ;;		___lwdiv
  2274 ;;		_getAD
  2275 ;; This function is called by:
  2276 ;;		_main
  2277 ;; This function uses a non-reentrant model
  2278 ;;
  2279                           
  2280                           
  2281                           ;psect for function _getPIR_AD
  2282  01F4                     _getPIR_AD:	
  2283                           
  2284                           ;incstack = 0
  2285                           ; Regs used in _getPIR_AD: [wreg-fsr0h+status,2+status,0+pclath+cstack]
  2286                           ;getPIR_AD@channel1 stored from wreg
  2287  01F4  1283               	bcf	3,5	;RP0=0, select bank0
  2288  01F5  1303               	bcf	3,6	;RP1=0, select bank0
  2289  01F6  00E2               	movwf	getPIR_AD@channel1
  2290                           
  2291                           ;PIR_B1.c: 168: char i = 0, j = 0;
  2292  01F7  01E3               	clrf	getPIR_AD@i
  2293  01F8  01E1               	clrf	getPIR_AD@j
  2294                           
  2295                           ;PIR_B1.c: 170: if (_PIR.ADtoGO == 1) {
  2296  01F9  1683               	bsf	3,5	;RP0=1, select bank1
  2297  01FA  1303               	bcf	3,6	;RP1=0, select bank1
  2298  01FB  1CA0               	btfss	__PIR^(0+128),1
  2299  01FC  0008               	return
  2300                           
  2301                           ;PIR_B1.c: 171: _PIR.GO = 1;
  2302  01FD  1520               	bsf	__PIR^(0+128),2
  2303                           
  2304                           ;PIR_B1.c: 172: _PIR.ADRES = getAD(channel1, 0x70);
  2305  01FE  3070               	movlw	112
  2306  01FF  1283               	bcf	3,5	;RP0=0, select bank0
  2307  0200  1303               	bcf	3,6	;RP1=0, select bank0
  2308  0201  00DE               	movwf	??_getPIR_AD
  2309  0202  085E               	movf	??_getPIR_AD,w
  2310  0203  00F4               	movwf	getAD@adcon1
  2311  0204  0862               	movf	getPIR_AD@channel1,w
  2312  0205  118A  277F  118A   	fcall	_getAD
  2313  0208  1283               	bcf	3,5	;RP0=0, select bank0
  2314  0209  1303               	bcf	3,6	;RP1=0, select bank0
  2315  020A  00DF               	movwf	??_getPIR_AD+1
  2316  020B  085F               	movf	??_getPIR_AD+1,w
  2317  020C  1683               	bsf	3,5	;RP0=1, select bank1
  2318  020D  1303               	bcf	3,6	;RP1=0, select bank1
  2319  020E  00A2               	movwf	(__PIR^(0+128)+2)
  2320                           
  2321                           ;PIR_B1.c: 173: _PIR.VRAD = _PIR.ADRES / 51;
  2322  020F  3033               	movlw	51
  2323  0210  1283               	bcf	3,5	;RP0=0, select bank0
  2324  0211  1303               	bcf	3,6	;RP1=0, select bank0
  2325  0212  00D6               	movwf	___awdiv@divisor
  2326  0213  3000               	movlw	0
  2327  0214  00D7               	movwf	___awdiv@divisor+1
  2328  0215  1683               	bsf	3,5	;RP0=1, select bank1
  2329  0216  1303               	bcf	3,6	;RP1=0, select bank1
  2330  0217  0822               	movf	(__PIR^(0+128)+2),w
  2331  0218  1283               	bcf	3,5	;RP0=0, select bank0
  2332  0219  1303               	bcf	3,6	;RP1=0, select bank0
  2333  021A  00DE               	movwf	??_getPIR_AD
  2334  021B  01DF               	clrf	??_getPIR_AD+1
  2335  021C  085E               	movf	??_getPIR_AD,w
  2336  021D  00D8               	movwf	___awdiv@dividend
  2337  021E  085F               	movf	??_getPIR_AD+1,w
  2338  021F  00D9               	movwf	___awdiv@dividend+1
  2339  0220  118A  2498  118A   	fcall	___awdiv
  2340  0223  1283               	bcf	3,5	;RP0=0, select bank0
  2341  0224  1303               	bcf	3,6	;RP1=0, select bank0
  2342  0225  0856               	movf	?___awdiv,w
  2343  0226  00E0               	movwf	??_getPIR_AD+2
  2344  0227  0860               	movf	??_getPIR_AD+2,w
  2345  0228  1683               	bsf	3,5	;RP0=1, select bank1
  2346  0229  1303               	bcf	3,6	;RP1=0, select bank1
  2347  022A  00A3               	movwf	(__PIR^(0+128)+3)
  2348                           
  2349                           ;PIR_B1.c: 174: _PIR.VRAD1 = _PIR.ADRES;
  2350  022B  0822               	movf	(__PIR^(0+128)+2),w
  2351  022C  1283               	bcf	3,5	;RP0=0, select bank0
  2352  022D  1303               	bcf	3,6	;RP1=0, select bank0
  2353  022E  00DE               	movwf	??_getPIR_AD
  2354  022F  085E               	movf	??_getPIR_AD,w
  2355  0230  1683               	bsf	3,5	;RP0=1, select bank1
  2356  0231  1303               	bcf	3,6	;RP1=0, select bank1
  2357  0232  00A4               	movwf	(__PIR^(0+128)+4)
  2358                           
  2359                           ;PIR_B1.c: 175: _PIR.ADRES = getAD(channel2, 0x70);
  2360  0233  3070               	movlw	112
  2361  0234  1283               	bcf	3,5	;RP0=0, select bank0
  2362  0235  1303               	bcf	3,6	;RP1=0, select bank0
  2363  0236  00DE               	movwf	??_getPIR_AD
  2364  0237  085E               	movf	??_getPIR_AD,w
  2365  0238  00F4               	movwf	getAD@adcon1
  2366  0239  0876               	movf	getPIR_AD@channel2,w
  2367  023A  118A  277F  118A   	fcall	_getAD
  2368  023D  1283               	bcf	3,5	;RP0=0, select bank0
  2369  023E  1303               	bcf	3,6	;RP1=0, select bank0
  2370  023F  00DF               	movwf	??_getPIR_AD+1
  2371  0240  085F               	movf	??_getPIR_AD+1,w
  2372  0241  1683               	bsf	3,5	;RP0=1, select bank1
  2373  0242  1303               	bcf	3,6	;RP1=0, select bank1
  2374  0243  00A2               	movwf	(__PIR^(0+128)+2)
  2375                           
  2376                           ;PIR_B1.c: 176: _PIR.SignalAD = _PIR.ADRES;
  2377  0244  0822               	movf	(__PIR^(0+128)+2),w
  2378  0245  1283               	bcf	3,5	;RP0=0, select bank0
  2379  0246  1303               	bcf	3,6	;RP1=0, select bank0
  2380  0247  00DE               	movwf	??_getPIR_AD
  2381  0248  085E               	movf	??_getPIR_AD,w
  2382  0249  1683               	bsf	3,5	;RP0=1, select bank1
  2383  024A  1303               	bcf	3,6	;RP1=0, select bank1
  2384  024B  00A1               	movwf	(__PIR^(0+128)+1)
  2385                           
  2386                           ;PIR_B1.c: 178: switch (_PIR.VRAD) {
  2387  024C  2A68               	goto	l3723
  2388  024D                     l3707:	
  2389                           ;PIR_B1.c: 179: case 0:
  2390                           
  2391                           
  2392                           ;PIR_B1.c: 180: if (_PIR.VRAD1 < 10) {
  2393  024D  300A               	movlw	10
  2394  024E  0224               	subwf	(__PIR^(0+128)+4),w
  2395  024F  1803               	skipnc
  2396  0250  2A53               	goto	l3711
  2397                           
  2398                           ;PIR_B1.c: 181: _PIR.CloseTimeValue = 5;
  2399  0251  3005               	movlw	5
  2400  0252  2A54               	goto	L1
  2401  0253                     l3711:	
  2402                           ;PIR_B1.c: 182: } else {
  2403                           
  2404                           
  2405                           ;PIR_B1.c: 183: _PIR.CloseTimeValue = 60;
  2406  0253  303C               	movlw	60
  2407  0254                     L1:	
  2408  0254  00C7               	movwf	(__PIR^(0+128)+39)
  2409  0255  3000               	movlw	0
  2410  0256  2A66               	goto	L5
  2411  0257                     l3713:	
  2412                           ;PIR_B1.c: 186: case 1:
  2413                           
  2414                           ;PIR_B1.c: 184: }
  2415                           ;PIR_B1.c: 185: break;
  2416                           
  2417                           
  2418                           ;PIR_B1.c: 187: _PIR.CloseTimeValue = 300;
  2419  0257  302C               	movlw	44
  2420  0258  00C7               	movwf	(__PIR^(0+128)+39)
  2421  0259  3001               	movlw	1
  2422  025A  2A66               	goto	L5
  2423  025B                     l3715:	
  2424                           ;PIR_B1.c: 189: case 2:
  2425                           
  2426                           ;PIR_B1.c: 188: break;
  2427                           
  2428                           
  2429                           ;PIR_B1.c: 190: _PIR.CloseTimeValue = 600;
  2430  025B  3058               	movlw	88
  2431  025C  00C7               	movwf	(__PIR^(0+128)+39)
  2432  025D  3002               	movlw	2
  2433  025E  2A66               	goto	L5
  2434  025F                     l3717:	
  2435                           ;PIR_B1.c: 192: case 3:
  2436                           
  2437                           ;PIR_B1.c: 191: break;
  2438                           
  2439                           
  2440                           ;PIR_B1.c: 193: _PIR.CloseTimeValue = 900;
  2441  025F  3084               	movlw	132
  2442  0260  00C7               	movwf	(__PIR^(0+128)+39)
  2443  0261  3003               	movlw	3
  2444  0262  2A66               	goto	L5
  2445  0263                     l3719:	
  2446                           ;PIR_B1.c: 195: case 4:
  2447                           
  2448                           ;PIR_B1.c: 194: break;
  2449                           
  2450                           
  2451                           ;PIR_B1.c: 196: _PIR.CloseTimeValue = 1200;
  2452  0263  30B0               	movlw	176
  2453  0264  00C7               	movwf	(__PIR^(0+128)+39)
  2454  0265  3004               	movlw	4
  2455  0266                     L5:	
  2456  0266  00C8               	movwf	(__PIR^(0+128)+40)
  2457                           
  2458                           ;PIR_B1.c: 198: }
  2459                           
  2460                           ;PIR_B1.c: 197: break;
  2461  0267  2A79               	goto	l3725
  2462  0268                     l3723:	
  2463  0268  0823               	movf	(__PIR^(0+128)+3),w
  2464                           
  2465                           ; Switch size 1, requested type "space"
  2466                           ; Number of cases is 5, Range of values is 0 to 4
  2467                           ; switch strategies available:
  2468                           ; Name         Instructions Cycles
  2469                           ; simple_byte           16     9 (average)
  2470                           ; direct_byte           17     7 (fixed)
  2471                           ; jumptable            260     6 (fixed)
  2472                           ;	Chosen strategy is simple_byte
  2473  0269  3A00               	xorlw	0	; case 0
  2474  026A  1903               	skipnz
  2475  026B  2A4D               	goto	l3707
  2476  026C  3A01               	xorlw	1	; case 1
  2477  026D  1903               	skipnz
  2478  026E  2A57               	goto	l3713
  2479  026F  3A03               	xorlw	3	; case 2
  2480  0270  1903               	skipnz
  2481  0271  2A5B               	goto	l3715
  2482  0272  3A01               	xorlw	1	; case 3
  2483  0273  1903               	skipnz
  2484  0274  2A5F               	goto	l3717
  2485  0275  3A07               	xorlw	7	; case 4
  2486  0276  1903               	skipnz
  2487  0277  2A63               	goto	l3719
  2488  0278  2A79               	goto	l3725
  2489  0279                     l3725:	
  2490                           
  2491                           ;PIR_B1.c: 201: _PIR.TenAverage[_PIR.TenCount] = _PIR.SignalAD;
  2492  0279  0821               	movf	(__PIR^(0+128)+1),w
  2493  027A  1283               	bcf	3,5	;RP0=0, select bank0
  2494  027B  1303               	bcf	3,6	;RP1=0, select bank0
  2495  027C  00DE               	movwf	??_getPIR_AD
  2496  027D  1683               	bsf	3,5	;RP0=1, select bank1
  2497  027E  1303               	bcf	3,6	;RP1=0, select bank1
  2498  027F  0827               	movf	(__PIR^(0+128)+7),w
  2499  0280  3EA8               	addlw	(__PIR+8)& (0+255)
  2500  0281  0084               	movwf	4
  2501  0282  1283               	bcf	3,5	;RP0=0, select bank0
  2502  0283  1303               	bcf	3,6	;RP1=0, select bank0
  2503  0284  085E               	movf	??_getPIR_AD,w
  2504  0285  1383               	bcf	3,7	;select IRP bank1
  2505  0286  0080               	movwf	0
  2506                           
  2507                           ;PIR_B1.c: 202: for (i = 0; i < 10; i++) {
  2508  0287  01E3               	clrf	getPIR_AD@i
  2509  0288  300A               	movlw	10
  2510  0289  0263               	subwf	getPIR_AD@i,w
  2511  028A  1803               	btfsc	3,0
  2512  028B  2AA8               	goto	l3739
  2513  028C                     l3733:	
  2514                           
  2515                           ;PIR_B1.c: 203: _PIR.TenAverageValue += _PIR.TenAverage[i];
  2516  028C  0863               	movf	getPIR_AD@i,w
  2517  028D  3EA8               	addlw	(__PIR+8)& (0+255)
  2518  028E  0084               	movwf	4
  2519  028F  0800               	movf	0,w
  2520  0290  00DE               	movwf	??_getPIR_AD
  2521  0291  01DF               	clrf	??_getPIR_AD+1
  2522  0292  085E               	movf	??_getPIR_AD,w
  2523  0293  1683               	bsf	3,5	;RP0=1, select bank1
  2524  0294  1303               	bcf	3,6	;RP1=0, select bank1
  2525  0295  07B2               	addwf	(__PIR^(0+128)+18),f
  2526  0296  1803               	skipnc
  2527  0297  0AB3               	incf	((__PIR+1)^(0+128)+18),f
  2528  0298  1283               	bcf	3,5	;RP0=0, select bank0
  2529  0299  1303               	bcf	3,6	;RP1=0, select bank0
  2530  029A  085F               	movf	??_getPIR_AD+1,w
  2531  029B  1683               	bsf	3,5	;RP0=1, select bank1
  2532  029C  1303               	bcf	3,6	;RP1=0, select bank1
  2533  029D  07B3               	addwf	((__PIR+1)^(0+128)+18),f
  2534  029E  3001               	movlw	1
  2535  029F  1283               	bcf	3,5	;RP0=0, select bank0
  2536  02A0  1303               	bcf	3,6	;RP1=0, select bank0
  2537  02A1  00DE               	movwf	??_getPIR_AD
  2538  02A2  085E               	movf	??_getPIR_AD,w
  2539  02A3  07E3               	addwf	getPIR_AD@i,f
  2540  02A4  300A               	movlw	10
  2541  02A5  0263               	subwf	getPIR_AD@i,w
  2542  02A6  1C03               	skipc
  2543  02A7  2A8C               	goto	l3733
  2544  02A8                     l3739:	
  2545                           
  2546                           ;PIR_B1.c: 204: }
  2547                           ;PIR_B1.c: 205: _PIR.HundredAverage[_PIR.HundreCount] = (_PIR.TenAverageValue / 10);
  2548  02A8  300A               	movlw	10
  2549  02A9  00D6               	movwf	___lwdiv@divisor
  2550  02AA  3000               	movlw	0
  2551  02AB  00D7               	movwf	___lwdiv@divisor+1
  2552  02AC  1683               	bsf	3,5	;RP0=1, select bank1
  2553  02AD  1303               	bcf	3,6	;RP1=0, select bank1
  2554  02AE  0833               	movf	((__PIR+1)^(0+128)+18),w
  2555  02AF  1283               	bcf	3,5	;RP0=0, select bank0
  2556  02B0  1303               	bcf	3,6	;RP1=0, select bank0
  2557  02B1  01D9               	clrf	___lwdiv@dividend+1
  2558  02B2  07D9               	addwf	___lwdiv@dividend+1,f
  2559  02B3  1683               	bsf	3,5	;RP0=1, select bank1
  2560  02B4  1303               	bcf	3,6	;RP1=0, select bank1
  2561  02B5  0832               	movf	(__PIR^(0+128)+18),w
  2562  02B6  1283               	bcf	3,5	;RP0=0, select bank0
  2563  02B7  1303               	bcf	3,6	;RP1=0, select bank0
  2564  02B8  01D8               	clrf	___lwdiv@dividend
  2565  02B9  07D8               	addwf	___lwdiv@dividend,f
  2566  02BA  118A  25EE  118A   	fcall	___lwdiv
  2567  02BD  1283               	bcf	3,5	;RP0=0, select bank0
  2568  02BE  1303               	bcf	3,6	;RP1=0, select bank0
  2569  02BF  0856               	movf	?___lwdiv,w
  2570  02C0  00DE               	movwf	??_getPIR_AD
  2571  02C1  1683               	bsf	3,5	;RP0=1, select bank1
  2572  02C2  1303               	bcf	3,6	;RP1=0, select bank1
  2573  02C3  0834               	movf	(__PIR^(0+128)+20),w
  2574  02C4  3EB5               	addlw	(__PIR+21)& (0+255)
  2575  02C5  0084               	movwf	4
  2576  02C6  1283               	bcf	3,5	;RP0=0, select bank0
  2577  02C7  1303               	bcf	3,6	;RP1=0, select bank0
  2578  02C8  085E               	movf	??_getPIR_AD,w
  2579  02C9  1383               	bcf	3,7	;select IRP bank1
  2580  02CA  0080               	movwf	0
  2581                           
  2582                           ;PIR_B1.c: 206: _PIR.TenAverageValue = 0;
  2583  02CB  1683               	bsf	3,5	;RP0=1, select bank1
  2584  02CC  1303               	bcf	3,6	;RP1=0, select bank1
  2585  02CD  01B2               	clrf	(__PIR^(0+128)+18)
  2586  02CE  01B3               	clrf	((__PIR+1)^(0+128)+18)
  2587                           
  2588                           ;PIR_B1.c: 208: for (i = 0; i <= 9; i++) {
  2589  02CF  1283               	bcf	3,5	;RP0=0, select bank0
  2590  02D0  1303               	bcf	3,6	;RP1=0, select bank0
  2591  02D1  01E3               	clrf	getPIR_AD@i
  2592  02D2  300A               	movlw	10
  2593  02D3  0263               	subwf	getPIR_AD@i,w
  2594  02D4  1803               	btfsc	3,0
  2595  02D5  2AF2               	goto	l3755
  2596  02D6                     l3749:	
  2597                           
  2598                           ;PIR_B1.c: 209: _PIR.HundredAverageValue += _PIR.HundredAverage[i];
  2599  02D6  0863               	movf	getPIR_AD@i,w
  2600  02D7  3EB5               	addlw	(__PIR+21)& (0+255)
  2601  02D8  0084               	movwf	4
  2602  02D9  0800               	movf	0,w
  2603  02DA  00DE               	movwf	??_getPIR_AD
  2604  02DB  01DF               	clrf	??_getPIR_AD+1
  2605  02DC  085E               	movf	??_getPIR_AD,w
  2606  02DD  1683               	bsf	3,5	;RP0=1, select bank1
  2607  02DE  1303               	bcf	3,6	;RP1=0, select bank1
  2608  02DF  07BF               	addwf	(__PIR^(0+128)+31),f
  2609  02E0  1803               	skipnc
  2610  02E1  0AC0               	incf	((__PIR+1)^(0+128)+31),f
  2611  02E2  1283               	bcf	3,5	;RP0=0, select bank0
  2612  02E3  1303               	bcf	3,6	;RP1=0, select bank0
  2613  02E4  085F               	movf	??_getPIR_AD+1,w
  2614  02E5  1683               	bsf	3,5	;RP0=1, select bank1
  2615  02E6  1303               	bcf	3,6	;RP1=0, select bank1
  2616  02E7  07C0               	addwf	((__PIR+1)^(0+128)+31),f
  2617  02E8  3001               	movlw	1
  2618  02E9  1283               	bcf	3,5	;RP0=0, select bank0
  2619  02EA  1303               	bcf	3,6	;RP1=0, select bank0
  2620  02EB  00DE               	movwf	??_getPIR_AD
  2621  02EC  085E               	movf	??_getPIR_AD,w
  2622  02ED  07E3               	addwf	getPIR_AD@i,f
  2623  02EE  300A               	movlw	10
  2624  02EF  0263               	subwf	getPIR_AD@i,w
  2625  02F0  1C03               	skipc
  2626  02F1  2AD6               	goto	l3749
  2627  02F2                     l3755:	
  2628                           
  2629                           ;PIR_B1.c: 210: }
  2630                           ;PIR_B1.c: 211: _PIR.ReferenceVoltage = (_PIR.HundredAverageValue / 10);
  2631  02F2  300A               	movlw	10
  2632  02F3  00D6               	movwf	___lwdiv@divisor
  2633  02F4  3000               	movlw	0
  2634  02F5  00D7               	movwf	___lwdiv@divisor+1
  2635  02F6  1683               	bsf	3,5	;RP0=1, select bank1
  2636  02F7  1303               	bcf	3,6	;RP1=0, select bank1
  2637  02F8  0840               	movf	((__PIR+1)^(0+128)+31),w
  2638  02F9  1283               	bcf	3,5	;RP0=0, select bank0
  2639  02FA  1303               	bcf	3,6	;RP1=0, select bank0
  2640  02FB  01D9               	clrf	___lwdiv@dividend+1
  2641  02FC  07D9               	addwf	___lwdiv@dividend+1,f
  2642  02FD  1683               	bsf	3,5	;RP0=1, select bank1
  2643  02FE  1303               	bcf	3,6	;RP1=0, select bank1
  2644  02FF  083F               	movf	(__PIR^(0+128)+31),w
  2645  0300  1283               	bcf	3,5	;RP0=0, select bank0
  2646  0301  1303               	bcf	3,6	;RP1=0, select bank0
  2647  0302  01D8               	clrf	___lwdiv@dividend
  2648  0303  07D8               	addwf	___lwdiv@dividend,f
  2649  0304  118A  25EE  118A   	fcall	___lwdiv
  2650  0307  1283               	bcf	3,5	;RP0=0, select bank0
  2651  0308  1303               	bcf	3,6	;RP1=0, select bank0
  2652  0309  0856               	movf	?___lwdiv,w
  2653  030A  00DE               	movwf	??_getPIR_AD
  2654  030B  085E               	movf	??_getPIR_AD,w
  2655  030C  1683               	bsf	3,5	;RP0=1, select bank1
  2656  030D  1303               	bcf	3,6	;RP1=0, select bank1
  2657  030E  00A6               	movwf	(__PIR^(0+128)+6)
  2658                           
  2659                           ;PIR_B1.c: 212: _PIR.HundredAverageValue = 0;
  2660  030F  01BF               	clrf	(__PIR^(0+128)+31)
  2661  0310  01C0               	clrf	((__PIR+1)^(0+128)+31)
  2662                           
  2663                           ;PIR_B1.c: 214: if (_PIR.TenCount < 10) {
  2664  0311  300A               	movlw	10
  2665  0312  0227               	subwf	(__PIR^(0+128)+7),w
  2666  0313  1803               	skipnc
  2667  0314  2B1E               	goto	l3763
  2668                           
  2669                           ;PIR_B1.c: 215: _PIR.TenCount++;
  2670  0315  3001               	movlw	1
  2671  0316  1283               	bcf	3,5	;RP0=0, select bank0
  2672  0317  1303               	bcf	3,6	;RP1=0, select bank0
  2673  0318  00DE               	movwf	??_getPIR_AD
  2674  0319  085E               	movf	??_getPIR_AD,w
  2675  031A  1683               	bsf	3,5	;RP0=1, select bank1
  2676  031B  1303               	bcf	3,6	;RP1=0, select bank1
  2677  031C  07A7               	addwf	(__PIR^(0+128)+7),f
  2678                           
  2679                           ;PIR_B1.c: 216: } else {
  2680  031D  0008               	return
  2681  031E                     l3763:	
  2682                           
  2683                           ;PIR_B1.c: 217: _PIR.TenCount = 0;
  2684  031E  01A7               	clrf	(__PIR^(0+128)+7)
  2685                           
  2686                           ;PIR_B1.c: 218: if (_PIR.HundreCount < 10)
  2687  031F  300A               	movlw	10
  2688  0320  0234               	subwf	(__PIR^(0+128)+20),w
  2689  0321  1803               	skipnc
  2690  0322  2B2C               	goto	l3769
  2691                           
  2692                           ;PIR_B1.c: 219: _PIR.HundreCount++;
  2693  0323  3001               	movlw	1
  2694  0324  1283               	bcf	3,5	;RP0=0, select bank0
  2695  0325  1303               	bcf	3,6	;RP1=0, select bank0
  2696  0326  00DE               	movwf	??_getPIR_AD
  2697  0327  085E               	movf	??_getPIR_AD,w
  2698  0328  1683               	bsf	3,5	;RP0=1, select bank1
  2699  0329  1303               	bcf	3,6	;RP1=0, select bank1
  2700  032A  07B4               	addwf	(__PIR^(0+128)+20),f
  2701  032B  0008               	return
  2702  032C                     l3769:	
  2703                           
  2704                           ;PIR_B1.c: 220: else
  2705                           ;PIR_B1.c: 221: _PIR.HundreCount = 0;
  2706  032C  01B4               	clrf	(__PIR^(0+128)+20)
  2707  032D  0008               	return
  2708  032E                     __end_of_getPIR_AD:	
  2709                           
  2710                           	psect	text5
  2711  05EE                     __ptext5:	
  2712 ;; *************** function ___lwdiv *****************
  2713 ;; Defined at:
  2714 ;;		line 6 in file "C:\Program Files (x86)\Microchip\xc8\v1.32\sources\common\lwdiv.c"
  2715 ;; Parameters:    Size  Location     Type
  2716 ;;  divisor         2    0[BANK0 ] unsigned int 
  2717 ;;  dividend        2    2[BANK0 ] unsigned int 
  2718 ;; Auto vars:     Size  Location     Type
  2719 ;;  quotient        2    5[BANK0 ] unsigned int 
  2720 ;;  counter         1    4[BANK0 ] unsigned char 
  2721 ;; Return value:  Size  Location     Type
  2722 ;;                  2    0[BANK0 ] unsigned int 
  2723 ;; Registers used:
  2724 ;;		wreg, status,2, status,0
  2725 ;; Tracked objects:
  2726 ;;		On entry : 0/0
  2727 ;;		On exit  : 0/0
  2728 ;;		Unchanged: 0/0
  2729 ;; Data sizes:     COMMON   BANK0   BANK1   BANK2
  2730 ;;      Params:         0       4       0       0
  2731 ;;      Locals:         0       3       0       0
  2732 ;;      Temps:          1       0       0       0
  2733 ;;      Totals:         1       7       0       0
  2734 ;;Total ram usage:        8 bytes
  2735 ;; Hardware stack levels used:    1
  2736 ;; Hardware stack levels required when called:    2
  2737 ;; This function calls:
  2738 ;;		Nothing
  2739 ;; This function is called by:
  2740 ;;		_getPIR_AD
  2741 ;; This function uses a non-reentrant model
  2742 ;;
  2743                           
  2744                           
  2745                           ;psect for function ___lwdiv
  2746  05EE                     ___lwdiv:	
  2747                           
  2748                           ;incstack = 0
  2749                           ; Regs used in ___lwdiv: [wreg+status,2+status,0]
  2750  05EE  1283               	bcf	3,5	;RP0=0, select bank0
  2751  05EF  1303               	bcf	3,6	;RP1=0, select bank0
  2752  05F0  01DB               	clrf	___lwdiv@quotient
  2753  05F1  01DC               	clrf	___lwdiv@quotient+1
  2754  05F2  0857               	movf	___lwdiv@divisor+1,w
  2755  05F3  0456               	iorwf	___lwdiv@divisor,w
  2756  05F4  1903               	skipnz
  2757  05F5  2E27               	goto	l3653
  2758  05F6  01DA               	clrf	___lwdiv@counter
  2759  05F7  0ADA               	incf	___lwdiv@counter,f
  2760  05F8                     l3641:	
  2761  05F8  1BD7               	btfsc	___lwdiv@divisor+1,7
  2762  05F9  2E06               	goto	l3643
  2763  05FA  3001               	movlw	1
  2764  05FB                     u4085:	
  2765  05FB  1003               	clrc
  2766  05FC  0DD6               	rlf	___lwdiv@divisor,f
  2767  05FD  0DD7               	rlf	___lwdiv@divisor+1,f
  2768  05FE  3EFF               	addlw	-1
  2769  05FF  1D03               	skipz
  2770  0600  2DFB               	goto	u4085
  2771  0601  3001               	movlw	1
  2772  0602  00F4               	movwf	??___lwdiv
  2773  0603  0874               	movf	??___lwdiv,w
  2774  0604  07DA               	addwf	___lwdiv@counter,f
  2775  0605  2DF8               	goto	l3641
  2776  0606                     l3643:	
  2777  0606  3001               	movlw	1
  2778  0607                     u4105:	
  2779  0607  1003               	clrc
  2780  0608  0DDB               	rlf	___lwdiv@quotient,f
  2781  0609  0DDC               	rlf	___lwdiv@quotient+1,f
  2782  060A  3EFF               	addlw	-1
  2783  060B  1D03               	skipz
  2784  060C  2E07               	goto	u4105
  2785  060D  0857               	movf	___lwdiv@divisor+1,w
  2786  060E  0259               	subwf	___lwdiv@dividend+1,w
  2787  060F  1D03               	skipz
  2788  0610  2E13               	goto	u4115
  2789  0611  0856               	movf	___lwdiv@divisor,w
  2790  0612  0258               	subwf	___lwdiv@dividend,w
  2791  0613                     u4115:	
  2792  0613  1C03               	skipc
  2793  0614  2E1C               	goto	l3649
  2794  0615  0856               	movf	___lwdiv@divisor,w
  2795  0616  02D8               	subwf	___lwdiv@dividend,f
  2796  0617  0857               	movf	___lwdiv@divisor+1,w
  2797  0618  1C03               	skipc
  2798  0619  03D9               	decf	___lwdiv@dividend+1,f
  2799  061A  02D9               	subwf	___lwdiv@dividend+1,f
  2800  061B  145B               	bsf	___lwdiv@quotient,0
  2801  061C                     l3649:	
  2802  061C  3001               	movlw	1
  2803  061D                     u4125:	
  2804  061D  1003               	clrc
  2805  061E  0CD7               	rrf	___lwdiv@divisor+1,f
  2806  061F  0CD6               	rrf	___lwdiv@divisor,f
  2807  0620  3EFF               	addlw	-1
  2808  0621  1D03               	skipz
  2809  0622  2E1D               	goto	u4125
  2810  0623  3001               	movlw	1
  2811  0624  02DA               	subwf	___lwdiv@counter,f
  2812  0625  1D03               	btfss	3,2
  2813  0626  2E06               	goto	l3643
  2814  0627                     l3653:	
  2815  0627  085C               	movf	___lwdiv@quotient+1,w
  2816  0628  01D7               	clrf	?___lwdiv+1
  2817  0629  07D7               	addwf	?___lwdiv+1,f
  2818  062A  085B               	movf	___lwdiv@quotient,w
  2819  062B  01D6               	clrf	?___lwdiv
  2820  062C  07D6               	addwf	?___lwdiv,f
  2821  062D  0008               	return
  2822  062E                     __end_of___lwdiv:	
  2823                           
  2824                           	psect	text6
  2825  0708                     __ptext6:	
  2826 ;; *************** function _getCDS_AD *****************
  2827 ;; Defined at:
  2828 ;;		line 45 in file "../src/CDS_B1.c"
  2829 ;; Parameters:    Size  Location     Type
  2830 ;;  channel1        1    wreg     unsigned char 
  2831 ;;  channel2        1    6[COMMON] unsigned char 
  2832 ;; Auto vars:     Size  Location     Type
  2833 ;;  channel1        1    4[BANK0 ] unsigned char 
  2834 ;;  j               1    3[BANK0 ] unsigned char 
  2835 ;;  i               1    2[BANK0 ] unsigned char 
  2836 ;; Return value:  Size  Location     Type
  2837 ;;		None               void
  2838 ;; Registers used:
  2839 ;;		wreg, status,2, status,0, pclath, cstack
  2840 ;; Tracked objects:
  2841 ;;		On entry : 0/0
  2842 ;;		On exit  : 0/0
  2843 ;;		Unchanged: 0/0
  2844 ;; Data sizes:     COMMON   BANK0   BANK1   BANK2
  2845 ;;      Params:         1       0       0       0
  2846 ;;      Locals:         0       3       0       0
  2847 ;;      Temps:          0       2       0       0
  2848 ;;      Totals:         1       5       0       0
  2849 ;;Total ram usage:        6 bytes
  2850 ;; Hardware stack levels used:    1
  2851 ;; Hardware stack levels required when called:    4
  2852 ;; This function calls:
  2853 ;;		_getAD
  2854 ;; This function is called by:
  2855 ;;		_main
  2856 ;; This function uses a non-reentrant model
  2857 ;;
  2858                           
  2859                           
  2860                           ;psect for function _getCDS_AD
  2861  0708                     _getCDS_AD:	
  2862                           
  2863                           ;incstack = 0
  2864                           ; Regs used in _getCDS_AD: [wreg+status,2+status,0+pclath+cstack]
  2865                           ;getCDS_AD@channel1 stored from wreg
  2866  0708  1283               	bcf	3,5	;RP0=0, select bank0
  2867  0709  1303               	bcf	3,6	;RP1=0, select bank0
  2868  070A  00DA               	movwf	getCDS_AD@channel1
  2869                           
  2870                           ;CDS_B1.c: 46: char i = 0, j = 0;
  2871  070B  01D8               	clrf	getCDS_AD@i
  2872  070C  01D9               	clrf	getCDS_AD@j
  2873                           
  2874                           ;CDS_B1.c: 47: if (_CDS.ADtoGO == 1) {
  2875  070D  1DA8               	btfss	__CDS,3
  2876  070E  0008               	return
  2877                           
  2878                           ;CDS_B1.c: 48: _CDS.GO = 1;
  2879  070F  14A8               	bsf	__CDS,1
  2880                           
  2881                           ;CDS_B1.c: 49: _CDS.ADRES = getAD(channel1, 0x70);
  2882  0710  3070               	movlw	112
  2883  0711  00D6               	movwf	??_getCDS_AD
  2884  0712  0856               	movf	??_getCDS_AD,w
  2885  0713  00F4               	movwf	getAD@adcon1
  2886  0714  085A               	movf	getCDS_AD@channel1,w
  2887  0715  118A  277F  118A   	fcall	_getAD
  2888  0718  1283               	bcf	3,5	;RP0=0, select bank0
  2889  0719  1303               	bcf	3,6	;RP1=0, select bank0
  2890  071A  00D7               	movwf	??_getCDS_AD+1
  2891  071B  0857               	movf	??_getCDS_AD+1,w
  2892  071C  00AC               	movwf	__CDS+4
  2893                           
  2894                           ;CDS_B1.c: 50: _CDS.VRAD = _CDS.ADRES;
  2895  071D  082C               	movf	__CDS+4,w
  2896  071E  00D6               	movwf	??_getCDS_AD
  2897  071F  0856               	movf	??_getCDS_AD,w
  2898  0720  00AA               	movwf	__CDS+2
  2899                           
  2900                           ;CDS_B1.c: 51: _CDS.ADRES = getAD(channel2, 0x70);
  2901  0721  3070               	movlw	112
  2902  0722  00D6               	movwf	??_getCDS_AD
  2903  0723  0856               	movf	??_getCDS_AD,w
  2904  0724  00F4               	movwf	getAD@adcon1
  2905  0725  0876               	movf	getCDS_AD@channel2,w
  2906  0726  118A  277F         	fcall	_getAD
  2907  0728  1283               	bcf	3,5	;RP0=0, select bank0
  2908  0729  1303               	bcf	3,6	;RP1=0, select bank0
  2909  072A  00D7               	movwf	??_getCDS_AD+1
  2910  072B  0857               	movf	??_getCDS_AD+1,w
  2911  072C  00AC               	movwf	__CDS+4
  2912                           
  2913                           ;CDS_B1.c: 52: _CDS.SignalAD = _CDS.ADRES;
  2914  072D  082C               	movf	__CDS+4,w
  2915  072E  00D6               	movwf	??_getCDS_AD
  2916  072F  0856               	movf	??_getCDS_AD,w
  2917  0730  00AB               	movwf	__CDS+3
  2918  0731  0008               	return
  2919  0732                     __end_of_getCDS_AD:	
  2920                           
  2921                           	psect	text7
  2922  077F                     __ptext7:	
  2923 ;; *************** function _getAD *****************
  2924 ;; Defined at:
  2925 ;;		line 427 in file "../src/MCU_B1.c"
  2926 ;; Parameters:    Size  Location     Type
  2927 ;;  adcon0          1    wreg     unsigned char 
  2928 ;;  adcon1          1    4[COMMON] unsigned char 
  2929 ;; Auto vars:     Size  Location     Type
  2930 ;;  adcon0          1    5[COMMON] unsigned char 
  2931 ;; Return value:  Size  Location     Type
  2932 ;;                  1    wreg      unsigned char 
  2933 ;; Registers used:
  2934 ;;		wreg, status,2, status,0, pclath, cstack
  2935 ;; Tracked objects:
  2936 ;;		On entry : 0/0
  2937 ;;		On exit  : 0/0
  2938 ;;		Unchanged: 0/0
  2939 ;; Data sizes:     COMMON   BANK0   BANK1   BANK2
  2940 ;;      Params:         1       0       0       0
  2941 ;;      Locals:         1       0       0       0
  2942 ;;      Temps:          0       0       0       0
  2943 ;;      Totals:         2       0       0       0
  2944 ;;Total ram usage:        2 bytes
  2945 ;; Hardware stack levels used:    1
  2946 ;; Hardware stack levels required when called:    3
  2947 ;; This function calls:
  2948 ;;		_Timeout_Counter
  2949 ;;		_set_TimeoutCleared
  2950 ;; This function is called by:
  2951 ;;		_getCDS_AD
  2952 ;;		_getTemp_AD
  2953 ;;		_getPIR_AD
  2954 ;; This function uses a non-reentrant model
  2955 ;;
  2956                           
  2957                           
  2958                           ;psect for function _getAD
  2959  077F                     _getAD:	
  2960                           
  2961                           ;incstack = 0
  2962                           ; Regs used in _getAD: [wreg+status,2+status,0+pclath+cstack]
  2963                           ;getAD@adcon0 stored from wreg
  2964  077F  00F5               	movwf	getAD@adcon0
  2965                           
  2966                           ;MCU_B1.c: 428: ADCON0 = adcon0;
  2967  0780  0875               	movf	getAD@adcon0,w
  2968  0781  1283               	bcf	3,5	;RP0=0, select bank0
  2969  0782  1303               	bcf	3,6	;RP1=0, select bank0
  2970  0783  009F               	movwf	31	;volatile
  2971                           
  2972                           ;MCU_B1.c: 429: ADCON1 = adcon1;
  2973  0784  0874               	movf	getAD@adcon1,w
  2974  0785  1683               	bsf	3,5	;RP0=1, select bank1
  2975  0786  1303               	bcf	3,6	;RP1=0, select bank1
  2976  0787  009F               	movwf	31	;volatile
  2977                           
  2978                           ;MCU_B1.c: 430: GO_nDONE = 1;
  2979  0788  1283               	bcf	3,5	;RP0=0, select bank0
  2980  0789  1303               	bcf	3,6	;RP1=0, select bank0
  2981  078A  149F               	bsf	31,1	;volatile
  2982                           
  2983                           ;MCU_B1.c: 431: while (GO_nDONE == 1 && myMain.Timeout == 0) {
  2984  078B  2F8F               	goto	l2593
  2985  078C                     l2591:	
  2986                           
  2987                           ;MCU_B1.c: 432: Timeout_Counter();
  2988  078C  158A  27C2  118A   	fcall	_Timeout_Counter
  2989  078F                     l2593:	
  2990  078F  1283               	bcf	3,5	;RP0=0, select bank0
  2991  0790  1303               	bcf	3,6	;RP1=0, select bank0
  2992  0791  1C9F               	btfss	31,1	;volatile
  2993  0792  2F95               	goto	l2597
  2994  0793  1D25               	btfss	_myMain+5,2
  2995  0794  2F8C               	goto	l2591
  2996  0795                     l2597:	
  2997                           
  2998                           ;MCU_B1.c: 433: };
  2999                           ;MCU_B1.c: 434: set_TimeoutCleared();
  3000  0795  158A  26EA         	fcall	_set_TimeoutCleared
  3001                           
  3002                           ;MCU_B1.c: 435: return ADRES;
  3003  0797  1283               	bcf	3,5	;RP0=0, select bank0
  3004  0798  1303               	bcf	3,6	;RP1=0, select bank0
  3005  0799  081E               	movf	30,w	;volatile
  3006  079A  0008               	return
  3007  079B                     __end_of_getAD:	
  3008                           
  3009                           	psect	text8
  3010  0EEA                     __ptext8:	
  3011 ;; *************** function _set_TimeoutCleared *****************
  3012 ;; Defined at:
  3013 ;;		line 272 in file "../src/Main_B1.c"
  3014 ;; Parameters:    Size  Location     Type
  3015 ;;		None
  3016 ;; Auto vars:     Size  Location     Type
  3017 ;;		None
  3018 ;; Return value:  Size  Location     Type
  3019 ;;		None               void
  3020 ;; Registers used:
  3021 ;;		status,2
  3022 ;; Tracked objects:
  3023 ;;		On entry : 0/0
  3024 ;;		On exit  : 0/0
  3025 ;;		Unchanged: 0/0
  3026 ;; Data sizes:     COMMON   BANK0   BANK1   BANK2
  3027 ;;      Params:         0       0       0       0
  3028 ;;      Locals:         0       0       0       0
  3029 ;;      Temps:          0       0       0       0
  3030 ;;      Totals:         0       0       0       0
  3031 ;;Total ram usage:        0 bytes
  3032 ;; Hardware stack levels used:    1
  3033 ;; Hardware stack levels required when called:    2
  3034 ;; This function calls:
  3035 ;;		Nothing
  3036 ;; This function is called by:
  3037 ;;		_getAD
  3038 ;; This function uses a non-reentrant model
  3039 ;;
  3040                           
  3041                           
  3042                           ;psect for function _set_TimeoutCleared
  3043  0EEA                     _set_TimeoutCleared:	
  3044                           
  3045                           ;Main_B1.c: 273: myMain.Timeout = 0;
  3046                           
  3047                           ;incstack = 0
  3048                           ; Regs used in _set_TimeoutCleared: [status,2]
  3049  0EEA  1283               	bcf	3,5	;RP0=0, select bank0
  3050  0EEB  1303               	bcf	3,6	;RP1=0, select bank0
  3051  0EEC  1125               	bcf	_myMain+5,2
  3052                           
  3053                           ;Main_B1.c: 274: myMain.Timeout_Counter = 0;
  3054  0EED  01A6               	clrf	_myMain+6
  3055  0EEE  01A7               	clrf	_myMain+7
  3056  0EEF  0008               	return
  3057  0EF0                     __end_of_set_TimeoutCleared:	
  3058                           
  3059                           	psect	text9
  3060  0FC2                     __ptext9:	
  3061 ;; *************** function _Timeout_Counter *****************
  3062 ;; Defined at:
  3063 ;;		line 263 in file "../src/Main_B1.c"
  3064 ;; Parameters:    Size  Location     Type
  3065 ;;		None
  3066 ;; Auto vars:     Size  Location     Type
  3067 ;;		None
  3068 ;; Return value:  Size  Location     Type
  3069 ;;		None               void
  3070 ;; Registers used:
  3071 ;;		wreg, status,2
  3072 ;; Tracked objects:
  3073 ;;		On entry : 0/0
  3074 ;;		On exit  : 0/0
  3075 ;;		Unchanged: 0/0
  3076 ;; Data sizes:     COMMON   BANK0   BANK1   BANK2
  3077 ;;      Params:         0       0       0       0
  3078 ;;      Locals:         0       0       0       0
  3079 ;;      Temps:          0       0       0       0
  3080 ;;      Totals:         0       0       0       0
  3081 ;;Total ram usage:        0 bytes
  3082 ;; Hardware stack levels used:    1
  3083 ;; Hardware stack levels required when called:    2
  3084 ;; This function calls:
  3085 ;;		Nothing
  3086 ;; This function is called by:
  3087 ;;		_getAD
  3088 ;; This function uses a non-reentrant model
  3089 ;;
  3090                           
  3091                           
  3092                           ;psect for function _Timeout_Counter
  3093  0FC2                     _Timeout_Counter:	
  3094                           
  3095                           ;Main_B1.c: 264: myMain.Timeout_Counter++;
  3096                           
  3097                           ;incstack = 0
  3098                           ; Regs used in _Timeout_Counter: [wreg+status,2]
  3099  0FC2  3001               	movlw	1
  3100  0FC3  1283               	bcf	3,5	;RP0=0, select bank0
  3101  0FC4  1303               	bcf	3,6	;RP1=0, select bank0
  3102  0FC5  07A6               	addwf	_myMain+6,f
  3103  0FC6  1803               	skipnc
  3104  0FC7  0AA7               	incf	_myMain+7,f
  3105  0FC8  3000               	movlw	0
  3106  0FC9  07A7               	addwf	_myMain+7,f
  3107                           
  3108                           ;Main_B1.c: 265: if (myMain.Timeout_Counter == 10000) {
  3109  0FCA  3027               	movlw	39
  3110  0FCB  0627               	xorwf	_myMain+7,w
  3111  0FCC  1D03               	skipz
  3112  0FCD  2FD0               	goto	u1865
  3113  0FCE  3010               	movlw	16
  3114  0FCF  0626               	xorwf	_myMain+6,w
  3115  0FD0                     u1865:	
  3116  0FD0  1D03               	skipz
  3117  0FD1  0008               	return
  3118                           
  3119                           ;Main_B1.c: 266: myMain.Timeout_Counter = 0;
  3120  0FD2  01A6               	clrf	_myMain+6
  3121  0FD3  01A7               	clrf	_myMain+7
  3122                           
  3123                           ;Main_B1.c: 267: myMain.Timeout = 1;
  3124  0FD4  1525               	bsf	_myMain+5,2
  3125  0FD5  0008               	return
  3126  0FD6                     __end_of_Timeout_Counter:	
  3127                           
  3128                           	psect	text10
  3129  0F8D                     __ptext10:	
  3130 ;; *************** function _WDT_Main *****************
  3131 ;; Defined at:
  3132 ;;		line 1033 in file "../src/MCU_B1.c"
  3133 ;; Parameters:    Size  Location     Type
  3134 ;;		None
  3135 ;; Auto vars:     Size  Location     Type
  3136 ;;		None
  3137 ;; Return value:  Size  Location     Type
  3138 ;;		None               void
  3139 ;; Registers used:
  3140 ;;		wreg, status,2, status,0, pclath, cstack
  3141 ;; Tracked objects:
  3142 ;;		On entry : 0/0
  3143 ;;		On exit  : 0/0
  3144 ;;		Unchanged: 0/0
  3145 ;; Data sizes:     COMMON   BANK0   BANK1   BANK2
  3146 ;;      Params:         0       0       0       0
  3147 ;;      Locals:         0       0       0       0
  3148 ;;      Temps:          1       0       0       0
  3149 ;;      Totals:         1       0       0       0
  3150 ;;Total ram usage:        1 bytes
  3151 ;; Hardware stack levels used:    1
  3152 ;; Hardware stack levels required when called:    3
  3153 ;; This function calls:
  3154 ;;		_WDT_Clearing
  3155 ;; This function is called by:
  3156 ;;		_main
  3157 ;; This function uses a non-reentrant model
  3158 ;;
  3159                           
  3160                           
  3161                           ;psect for function _WDT_Main
  3162  0F8D                     _WDT_Main:	
  3163                           
  3164                           ;MCU_B1.c: 1034: if (WDT.Enable == 1) {
  3165                           
  3166                           ;incstack = 0
  3167                           ; Regs used in _WDT_Main: [wreg+status,2+status,0+pclath+cstack]
  3168  0F8D  1283               	bcf	3,5	;RP0=0, select bank0
  3169  0F8E  1303               	bcf	3,6	;RP1=0, select bank0
  3170  0F8F  1C34               	btfss	_WDT,0
  3171  0F90  0008               	return
  3172                           
  3173                           ;MCU_B1.c: 1035: if (WDT.Timer-- > 0) {
  3174  0F91  3001               	movlw	1
  3175  0F92  02B5               	subwf	_WDT+1,f
  3176  0F93  0835               	movf	_WDT+1,w
  3177  0F94  3AFF               	xorlw	255
  3178  0F95  1903               	skipnz
  3179  0F96  0008               	return
  3180                           
  3181                           ;MCU_B1.c: 1036: WDT.Timer = 100;
  3182  0F97  3064               	movlw	100
  3183  0F98  00F4               	movwf	??_WDT_Main
  3184  0F99  0874               	movf	??_WDT_Main,w
  3185  0F9A  00B5               	movwf	_WDT+1
  3186                           
  3187                           ;MCU_B1.c: 1037: WDT_Clearing();
  3188  0F9B  118A  2002         	fcall	_WDT_Clearing
  3189  0F9D  0008               	return
  3190  0F9E                     __end_of_WDT_Main:	
  3191                           
  3192                           	psect	text11
  3193  0002                     __ptext11:	
  3194 ;; *************** function _WDT_Clearing *****************
  3195 ;; Defined at:
  3196 ;;		line 1043 in file "../src/MCU_B1.c"
  3197 ;; Parameters:    Size  Location     Type
  3198 ;;		None
  3199 ;; Auto vars:     Size  Location     Type
  3200 ;;		None
  3201 ;; Return value:  Size  Location     Type
  3202 ;;		None               void
  3203 ;; Registers used:
  3204 ;;		None
  3205 ;; Tracked objects:
  3206 ;;		On entry : 0/0
  3207 ;;		On exit  : 0/0
  3208 ;;		Unchanged: 0/0
  3209 ;; Data sizes:     COMMON   BANK0   BANK1   BANK2
  3210 ;;      Params:         0       0       0       0
  3211 ;;      Locals:         0       0       0       0
  3212 ;;      Temps:          0       0       0       0
  3213 ;;      Totals:         0       0       0       0
  3214 ;;Total ram usage:        0 bytes
  3215 ;; Hardware stack levels used:    1
  3216 ;; Hardware stack levels required when called:    2
  3217 ;; This function calls:
  3218 ;;		Nothing
  3219 ;; This function is called by:
  3220 ;;		_WDT_Main
  3221 ;; This function uses a non-reentrant model
  3222 ;;
  3223                           
  3224                           
  3225                           ;psect for function _WDT_Clearing
  3226  0002                     _WDT_Clearing:	
  3227                           
  3228                           ;incstack = 0
  3229                           ; Regs used in _WDT_Clearing: []
  3230  0002  0064               	clrwdt	;# 
  3231  0003  0008               	return
  3232  0004                     __end_of_WDT_Clearing:	
  3233                           
  3234                           	psect	text12
  3235  0ED5                     __ptext12:	
  3236 ;; *************** function _Temp_Main *****************
  3237 ;; Defined at:
  3238 ;;		line 50 in file "../src/OverTemperature_B1.c"
  3239 ;; Parameters:    Size  Location     Type
  3240 ;;		None
  3241 ;; Auto vars:     Size  Location     Type
  3242 ;;		None
  3243 ;; Return value:  Size  Location     Type
  3244 ;;		None               void
  3245 ;; Registers used:
  3246 ;;		wreg, fsr0l, fsr0h, status,2, status,0, pclath, cstack
  3247 ;; Tracked objects:
  3248 ;;		On entry : 0/0
  3249 ;;		On exit  : 0/0
  3250 ;;		Unchanged: 0/0
  3251 ;; Data sizes:     COMMON   BANK0   BANK1   BANK2
  3252 ;;      Params:         0       0       0       0
  3253 ;;      Locals:         0       0       0       0
  3254 ;;      Temps:          0       0       0       0
  3255 ;;      Totals:         0       0       0       0
  3256 ;;Total ram usage:        0 bytes
  3257 ;; Hardware stack levels used:    1
  3258 ;; Hardware stack levels required when called:    6
  3259 ;; This function calls:
  3260 ;;		_setTemp_Main
  3261 ;; This function is called by:
  3262 ;;		_main
  3263 ;; This function uses a non-reentrant model
  3264 ;;
  3265                           
  3266                           
  3267                           ;psect for function _Temp_Main
  3268  0ED5                     _Temp_Main:	
  3269                           
  3270                           ;OverTemperature_B1.c: 52: setTemp_Main();
  3271                           
  3272                           ;incstack = 0
  3273                           ; Regs used in _Temp_Main: [wreg-fsr0h+status,2+status,0+pclath+cstack]
  3274  0ED5  118A  232E         	fcall	_setTemp_Main
  3275  0ED7  0008               	return
  3276  0ED8                     __end_of_Temp_Main:	
  3277                           
  3278                           	psect	text13
  3279  032E                     __ptext13:	
  3280 ;; *************** function _setTemp_Main *****************
  3281 ;; Defined at:
  3282 ;;		line 57 in file "../src/OverTemperature_B1.c"
  3283 ;; Parameters:    Size  Location     Type
  3284 ;;		None
  3285 ;; Auto vars:     Size  Location     Type
  3286 ;;		None
  3287 ;; Return value:  Size  Location     Type
  3288 ;;		None               void
  3289 ;; Registers used:
  3290 ;;		wreg, fsr0l, fsr0h, status,2, status,0, pclath, cstack
  3291 ;; Tracked objects:
  3292 ;;		On entry : 0/0
  3293 ;;		On exit  : 0/0
  3294 ;;		Unchanged: 0/0
  3295 ;; Data sizes:     COMMON   BANK0   BANK1   BANK2
  3296 ;;      Params:         0       0       0       0
  3297 ;;      Locals:         0       0       0       0
  3298 ;;      Temps:          0       1       0       0
  3299 ;;      Totals:         0       1       0       0
  3300 ;;Total ram usage:        1 bytes
  3301 ;; Hardware stack levels used:    1
  3302 ;; Hardware stack levels required when called:    5
  3303 ;; This function calls:
  3304 ;;		___awdiv
  3305 ;;		_getMain_All_Error_Status
  3306 ;;		_getMain_LightsStatus
  3307 ;; This function is called by:
  3308 ;;		_Temp_Main
  3309 ;; This function uses a non-reentrant model
  3310 ;;
  3311                           
  3312                           
  3313                           ;psect for function _setTemp_Main
  3314  032E                     _setTemp_Main:	
  3315                           
  3316                           ;OverTemperature_B1.c: 58: if (Temp.Enable == 1) {
  3317                           
  3318                           ;incstack = 0
  3319                           ; Regs used in _setTemp_Main: [wreg-fsr0h+status,2+status,0+pclath+cstack]
  3320  032E  1283               	bcf	3,5	;RP0=0, select bank0
  3321  032F  1303               	bcf	3,6	;RP1=0, select bank0
  3322  0330  1C37               	btfss	_Temp,0
  3323  0331  2BAE               	goto	l654
  3324                           
  3325                           ;OverTemperature_B1.c: 59: if (Temp.ADtoGO == 0) {
  3326  0332  1937               	btfsc	_Temp,2
  3327  0333  2B45               	goto	l3535
  3328                           
  3329                           ;OverTemperature_B1.c: 60: Temp.Time++;
  3330  0334  3001               	movlw	1
  3331  0335  07B8               	addwf	_Temp+1,f
  3332  0336  1803               	skipnc
  3333  0337  0AB9               	incf	_Temp+2,f
  3334  0338  3000               	movlw	0
  3335  0339  07B9               	addwf	_Temp+2,f
  3336                           
  3337                           ;OverTemperature_B1.c: 61: if (Temp.Time >= 500) {
  3338  033A  3001               	movlw	1
  3339  033B  0239               	subwf	_Temp+2,w
  3340  033C  30F4               	movlw	244
  3341  033D  1903               	skipnz
  3342  033E  0238               	subwf	_Temp+1,w
  3343  033F  1C03               	skipc
  3344  0340  0008               	return
  3345                           
  3346                           ;OverTemperature_B1.c: 62: Temp.Time = 0;
  3347  0341  01B8               	clrf	_Temp+1
  3348  0342  01B9               	clrf	_Temp+2
  3349                           
  3350                           ;OverTemperature_B1.c: 63: Temp.ADtoGO = 1;
  3351  0343  1537               	bsf	_Temp,2
  3352                           
  3353                           ;OverTemperature_B1.c: 64: }
  3354                           ;OverTemperature_B1.c: 65: } else {
  3355  0344  0008               	return
  3356  0345                     l3535:	
  3357                           
  3358                           ;OverTemperature_B1.c: 66: if (getMain_All_Error_Status(2) == 0) {
  3359  0345  3002               	movlw	2
  3360  0346  118A  266D  118A   	fcall	_getMain_All_Error_Status
  3361  0349  3800               	iorlw	0
  3362  034A  1D03               	skipz
  3363  034B  0008               	return
  3364                           
  3365                           ;OverTemperature_B1.c: 67: Temp.Time++;
  3366  034C  3001               	movlw	1
  3367  034D  1283               	bcf	3,5	;RP0=0, select bank0
  3368  034E  1303               	bcf	3,6	;RP1=0, select bank0
  3369  034F  07B8               	addwf	_Temp+1,f
  3370  0350  1803               	skipnc
  3371  0351  0AB9               	incf	_Temp+2,f
  3372  0352  3000               	movlw	0
  3373  0353  07B9               	addwf	_Temp+2,f
  3374                           
  3375                           ;OverTemperature_B1.c: 68: if (Temp.Time >= 5) {
  3376  0354  3000               	movlw	0
  3377  0355  0239               	subwf	_Temp+2,w
  3378  0356  3005               	movlw	5
  3379  0357  1903               	skipnz
  3380  0358  0238               	subwf	_Temp+1,w
  3381  0359  1C03               	skipc
  3382  035A  0008               	return
  3383                           
  3384                           ;OverTemperature_B1.c: 69: Temp.Time = 0;
  3385  035B  01B8               	clrf	_Temp+1
  3386  035C  01B9               	clrf	_Temp+2
  3387                           
  3388                           ;OverTemperature_B1.c: 70: if (Temp.GO == 1) {
  3389  035D  1E37               	btfss	_Temp,4
  3390  035E  0008               	return
  3391                           
  3392                           ;OverTemperature_B1.c: 71: Temp.ADtoGO = 0;
  3393  035F  1137               	bcf	_Temp,2
  3394                           
  3395                           ;OverTemperature_B1.c: 72: Temp.AD = (Temp.ADH[0] + Temp.ADH[1]) / 2;
  3396  0360  3002               	movlw	2
  3397  0361  00D6               	movwf	___awdiv@divisor
  3398  0362  3000               	movlw	0
  3399  0363  00D7               	movwf	___awdiv@divisor+1
  3400  0364  083E               	movf	_Temp+7,w
  3401  0365  073F               	addwf	_Temp+8,w
  3402  0366  00D8               	movwf	___awdiv@dividend
  3403  0367  01D9               	clrf	___awdiv@dividend+1
  3404  0368  0DD9               	rlf	___awdiv@dividend+1,f
  3405  0369  118A  2498  118A   	fcall	___awdiv
  3406  036C  1283               	bcf	3,5	;RP0=0, select bank0
  3407  036D  1303               	bcf	3,6	;RP1=0, select bank0
  3408  036E  0856               	movf	?___awdiv,w
  3409  036F  00DE               	movwf	??_setTemp_Main
  3410  0370  085E               	movf	??_setTemp_Main,w
  3411  0371  00BD               	movwf	_Temp+6
  3412                           
  3413                           ;OverTemperature_B1.c: 74: if (getMain_LightsStatus() == 1) {
  3414  0372  118A  26D7  118A   	fcall	_getMain_LightsStatus
  3415  0375  3A01               	xorlw	1
  3416  0376  1D03               	skipz
  3417  0377  2B80               	goto	l3551
  3418                           
  3419                           ;OverTemperature_B1.c: 75: Temp.SafeValue = 140;
  3420  0378  308C               	movlw	140
  3421  0379  1283               	bcf	3,5	;RP0=0, select bank0
  3422  037A  1303               	bcf	3,6	;RP1=0, select bank0
  3423  037B  00DE               	movwf	??_setTemp_Main
  3424  037C  085E               	movf	??_setTemp_Main,w
  3425  037D  00C1               	movwf	_Temp+10
  3426                           
  3427                           ;OverTemperature_B1.c: 76: Temp.DangerValue = 100;
  3428  037E  3064               	movlw	100
  3429  037F  2B87               	goto	L6
  3430  0380                     l3551:	
  3431                           ;OverTemperature_B1.c: 77: } else {
  3432                           
  3433                           
  3434                           ;OverTemperature_B1.c: 78: Temp.SafeValue = 100;
  3435  0380  3064               	movlw	100
  3436  0381  1283               	bcf	3,5	;RP0=0, select bank0
  3437  0382  1303               	bcf	3,6	;RP1=0, select bank0
  3438  0383  00DE               	movwf	??_setTemp_Main
  3439  0384  085E               	movf	??_setTemp_Main,w
  3440  0385  00C1               	movwf	_Temp+10
  3441                           
  3442                           ;OverTemperature_B1.c: 79: Temp.DangerValue = 70;
  3443  0386  3046               	movlw	70
  3444  0387                     L6:	
  3445  0387  00DE               	movwf	??_setTemp_Main
  3446  0388  085E               	movf	??_setTemp_Main,w
  3447  0389  00C2               	movwf	_Temp+11
  3448                           
  3449                           ;OverTemperature_B1.c: 80: }
  3450                           ;OverTemperature_B1.c: 89: if (Temp.ERROR == 1) {
  3451  038A  1CB7               	btfss	_Temp,1
  3452  038B  2B9B               	goto	l3567
  3453                           
  3454                           ;OverTemperature_B1.c: 90: if (Temp.AD >= Temp.SafeValue) {
  3455  038C  0841               	movf	_Temp+10,w
  3456  038D  023D               	subwf	_Temp+6,w
  3457  038E  1C03               	skipc
  3458  038F  2BAA               	goto	l3577
  3459                           
  3460                           ;OverTemperature_B1.c: 91: Temp.Count++;
  3461  0390  3001               	movlw	1
  3462  0391  00DE               	movwf	??_setTemp_Main
  3463  0392  085E               	movf	??_setTemp_Main,w
  3464  0393  07BA               	addwf	_Temp+3,f
  3465                           
  3466                           ;OverTemperature_B1.c: 92: if (Temp.Count >= 3) {
  3467  0394  3003               	movlw	3
  3468  0395  023A               	subwf	_Temp+3,w
  3469  0396  1C03               	skipc
  3470  0397  2BAB               	goto	l667
  3471                           
  3472                           ;OverTemperature_B1.c: 93: Temp.Count = 0;
  3473  0398  01BA               	clrf	_Temp+3
  3474                           
  3475                           ;OverTemperature_B1.c: 94: Temp.ERROR = 0;
  3476  0399  10B7               	bcf	_Temp,1
  3477                           
  3478                           ;OverTemperature_B1.c: 96: }
  3479                           ;OverTemperature_B1.c: 97: } else {
  3480                           
  3481                           ;OverTemperature_B1.c: 95: ;;
  3482  039A  2BAB               	goto	l667
  3483  039B                     l3567:	
  3484                           ;OverTemperature_B1.c: 99: }
  3485                           ;OverTemperature_B1.c: 100: } else {
  3486                           
  3487                           ;OverTemperature_B1.c: 98: Temp.Count = 0;
  3488                           
  3489                           
  3490                           ;OverTemperature_B1.c: 101: if (Temp.AD <= Temp.DangerValue) {
  3491  039B  083D               	movf	_Temp+6,w
  3492  039C  0242               	subwf	_Temp+11,w
  3493  039D  1C03               	skipc
  3494  039E  2BAA               	goto	l3577
  3495                           
  3496                           ;OverTemperature_B1.c: 102: Temp.Count++;
  3497  039F  3001               	movlw	1
  3498  03A0  00DE               	movwf	??_setTemp_Main
  3499  03A1  085E               	movf	??_setTemp_Main,w
  3500  03A2  07BA               	addwf	_Temp+3,f
  3501                           
  3502                           ;OverTemperature_B1.c: 103: if (Temp.Count >= 3) {
  3503  03A3  3003               	movlw	3
  3504  03A4  023A               	subwf	_Temp+3,w
  3505  03A5  1C03               	skipc
  3506  03A6  2BAB               	goto	l667
  3507                           
  3508                           ;OverTemperature_B1.c: 104: Temp.Count = 0;
  3509  03A7  01BA               	clrf	_Temp+3
  3510                           
  3511                           ;OverTemperature_B1.c: 105: Temp.ERROR = 1;
  3512  03A8  14B7               	bsf	_Temp,1
  3513                           
  3514                           ;OverTemperature_B1.c: 106: }
  3515                           ;OverTemperature_B1.c: 107: } else {
  3516  03A9  2BAB               	goto	l667
  3517  03AA                     l3577:	
  3518                           
  3519                           ;OverTemperature_B1.c: 108: Temp.Count = 0;
  3520  03AA  01BA               	clrf	_Temp+3
  3521  03AB                     l667:	
  3522                           
  3523                           ;OverTemperature_B1.c: 109: }
  3524                           ;OverTemperature_B1.c: 110: }
  3525                           ;OverTemperature_B1.c: 111: ;;
  3526                           ;OverTemperature_B1.c: 112: ;;
  3527                           ;OverTemperature_B1.c: 118: Temp.ADH[0] = 0;
  3528  03AB  01BE               	clrf	_Temp+7
  3529                           
  3530                           ;OverTemperature_B1.c: 119: Temp.ADH[1] = 0;
  3531  03AC  01BF               	clrf	_Temp+8
  3532                           
  3533                           ;OverTemperature_B1.c: 120: }
  3534                           ;OverTemperature_B1.c: 121: }
  3535                           ;OverTemperature_B1.c: 122: }
  3536                           ;OverTemperature_B1.c: 123: }
  3537                           ;OverTemperature_B1.c: 124: } else {
  3538  03AD  0008               	return
  3539  03AE                     l654:	
  3540                           
  3541                           ;OverTemperature_B1.c: 125: if (myMain.PowerON == 1) {
  3542  03AE  1C20               	btfss	_myMain,0
  3543  03AF  0008               	return
  3544                           
  3545                           ;OverTemperature_B1.c: 126: Temp.Enable = 1;
  3546  03B0  1437               	bsf	_Temp,0
  3547  03B1  0008               	return
  3548  03B2                     __end_of_setTemp_Main:	
  3549                           
  3550                           	psect	text14
  3551  0498                     __ptext14:	
  3552 ;; *************** function ___awdiv *****************
  3553 ;; Defined at:
  3554 ;;		line 6 in file "C:\Program Files (x86)\Microchip\xc8\v1.32\sources\common\awdiv.c"
  3555 ;; Parameters:    Size  Location     Type
  3556 ;;  divisor         2    0[BANK0 ] int 
  3557 ;;  dividend        2    2[BANK0 ] int 
  3558 ;; Auto vars:     Size  Location     Type
  3559 ;;  quotient        2    6[BANK0 ] int 
  3560 ;;  sign            1    5[BANK0 ] unsigned char 
  3561 ;;  counter         1    4[BANK0 ] unsigned char 
  3562 ;; Return value:  Size  Location     Type
  3563 ;;                  2    0[BANK0 ] int 
  3564 ;; Registers used:
  3565 ;;		wreg, status,2, status,0
  3566 ;; Tracked objects:
  3567 ;;		On entry : 0/0
  3568 ;;		On exit  : 0/0
  3569 ;;		Unchanged: 0/0
  3570 ;; Data sizes:     COMMON   BANK0   BANK1   BANK2
  3571 ;;      Params:         0       4       0       0
  3572 ;;      Locals:         0       4       0       0
  3573 ;;      Temps:          1       0       0       0
  3574 ;;      Totals:         1       8       0       0
  3575 ;;Total ram usage:        9 bytes
  3576 ;; Hardware stack levels used:    1
  3577 ;; Hardware stack levels required when called:    2
  3578 ;; This function calls:
  3579 ;;		Nothing
  3580 ;; This function is called by:
  3581 ;;		_setTemp_Main
  3582 ;;		_getPIR_AD
  3583 ;; This function uses a non-reentrant model
  3584 ;;
  3585                           
  3586                           
  3587                           ;psect for function ___awdiv
  3588  0498                     ___awdiv:	
  3589                           
  3590                           ;incstack = 0
  3591                           ; Regs used in ___awdiv: [wreg+status,2+status,0]
  3592  0498  1283               	bcf	3,5	;RP0=0, select bank0
  3593  0499  1303               	bcf	3,6	;RP1=0, select bank0
  3594  049A  01DB               	clrf	___awdiv@sign
  3595  049B  1FD7               	btfss	___awdiv@divisor+1,7
  3596  049C  2CA4               	goto	l3419
  3597  049D  09D6               	comf	___awdiv@divisor,f
  3598  049E  09D7               	comf	___awdiv@divisor+1,f
  3599  049F  0AD6               	incf	___awdiv@divisor,f
  3600  04A0  1903               	skipnz
  3601  04A1  0AD7               	incf	___awdiv@divisor+1,f
  3602  04A2  01DB               	clrf	___awdiv@sign
  3603  04A3  0ADB               	incf	___awdiv@sign,f
  3604  04A4                     l3419:	
  3605  04A4  1FD9               	btfss	___awdiv@dividend+1,7
  3606  04A5  2CAF               	goto	l3425
  3607  04A6  09D8               	comf	___awdiv@dividend,f
  3608  04A7  09D9               	comf	___awdiv@dividend+1,f
  3609  04A8  0AD8               	incf	___awdiv@dividend,f
  3610  04A9  1903               	skipnz
  3611  04AA  0AD9               	incf	___awdiv@dividend+1,f
  3612  04AB  3001               	movlw	1
  3613  04AC  00F4               	movwf	??___awdiv
  3614  04AD  0874               	movf	??___awdiv,w
  3615  04AE  06DB               	xorwf	___awdiv@sign,f
  3616  04AF                     l3425:	
  3617  04AF  01DC               	clrf	___awdiv@quotient
  3618  04B0  01DD               	clrf	___awdiv@quotient+1
  3619  04B1  0857               	movf	___awdiv@divisor+1,w
  3620  04B2  0456               	iorwf	___awdiv@divisor,w
  3621  04B3  1903               	skipnz
  3622  04B4  2CE6               	goto	l3447
  3623  04B5  01DA               	clrf	___awdiv@counter
  3624  04B6  0ADA               	incf	___awdiv@counter,f
  3625  04B7                     l3435:	
  3626  04B7  1BD7               	btfsc	___awdiv@divisor+1,7
  3627  04B8  2CC5               	goto	l3437
  3628  04B9  3001               	movlw	1
  3629  04BA                     u3585:	
  3630  04BA  1003               	clrc
  3631  04BB  0DD6               	rlf	___awdiv@divisor,f
  3632  04BC  0DD7               	rlf	___awdiv@divisor+1,f
  3633  04BD  3EFF               	addlw	-1
  3634  04BE  1D03               	skipz
  3635  04BF  2CBA               	goto	u3585
  3636  04C0  3001               	movlw	1
  3637  04C1  00F4               	movwf	??___awdiv
  3638  04C2  0874               	movf	??___awdiv,w
  3639  04C3  07DA               	addwf	___awdiv@counter,f
  3640  04C4  2CB7               	goto	l3435
  3641  04C5                     l3437:	
  3642  04C5  3001               	movlw	1
  3643  04C6                     u3605:	
  3644  04C6  1003               	clrc
  3645  04C7  0DDC               	rlf	___awdiv@quotient,f
  3646  04C8  0DDD               	rlf	___awdiv@quotient+1,f
  3647  04C9  3EFF               	addlw	-1
  3648  04CA  1D03               	skipz
  3649  04CB  2CC6               	goto	u3605
  3650  04CC  0857               	movf	___awdiv@divisor+1,w
  3651  04CD  0259               	subwf	___awdiv@dividend+1,w
  3652  04CE  1D03               	skipz
  3653  04CF  2CD2               	goto	u3615
  3654  04D0  0856               	movf	___awdiv@divisor,w
  3655  04D1  0258               	subwf	___awdiv@dividend,w
  3656  04D2                     u3615:	
  3657  04D2  1C03               	skipc
  3658  04D3  2CDB               	goto	l3443
  3659  04D4  0856               	movf	___awdiv@divisor,w
  3660  04D5  02D8               	subwf	___awdiv@dividend,f
  3661  04D6  0857               	movf	___awdiv@divisor+1,w
  3662  04D7  1C03               	skipc
  3663  04D8  03D9               	decf	___awdiv@dividend+1,f
  3664  04D9  02D9               	subwf	___awdiv@dividend+1,f
  3665  04DA  145C               	bsf	___awdiv@quotient,0
  3666  04DB                     l3443:	
  3667  04DB  3001               	movlw	1
  3668  04DC                     u3625:	
  3669  04DC  1003               	clrc
  3670  04DD  0CD7               	rrf	___awdiv@divisor+1,f
  3671  04DE  0CD6               	rrf	___awdiv@divisor,f
  3672  04DF  3EFF               	addlw	-1
  3673  04E0  1D03               	skipz
  3674  04E1  2CDC               	goto	u3625
  3675  04E2  3001               	movlw	1
  3676  04E3  02DA               	subwf	___awdiv@counter,f
  3677  04E4  1D03               	btfss	3,2
  3678  04E5  2CC5               	goto	l3437
  3679  04E6                     l3447:	
  3680  04E6  085B               	movf	___awdiv@sign,w
  3681  04E7  1903               	btfsc	3,2
  3682  04E8  2CEE               	goto	l3451
  3683  04E9  09DC               	comf	___awdiv@quotient,f
  3684  04EA  09DD               	comf	___awdiv@quotient+1,f
  3685  04EB  0ADC               	incf	___awdiv@quotient,f
  3686  04EC  1903               	skipnz
  3687  04ED  0ADD               	incf	___awdiv@quotient+1,f
  3688  04EE                     l3451:	
  3689  04EE  085D               	movf	___awdiv@quotient+1,w
  3690  04EF  01D7               	clrf	?___awdiv+1
  3691  04F0  07D7               	addwf	?___awdiv+1,f
  3692  04F1  085C               	movf	___awdiv@quotient,w
  3693  04F2  01D6               	clrf	?___awdiv
  3694  04F3  07D6               	addwf	?___awdiv,f
  3695  04F4  0008               	return
  3696  04F5                     __end_of___awdiv:	
  3697                           
  3698                           	psect	text15
  3699  0ED2                     __ptext15:	
  3700 ;; *************** function _Temp_Initialization *****************
  3701 ;; Defined at:
  3702 ;;		line 8 in file "../src/OverTemperature_B1.c"
  3703 ;; Parameters:    Size  Location     Type
  3704 ;;		None
  3705 ;; Auto vars:     Size  Location     Type
  3706 ;;		None
  3707 ;; Return value:  Size  Location     Type
  3708 ;;		None               void
  3709 ;; Registers used:
  3710 ;;		status,2, status,0, pclath, cstack
  3711 ;; Tracked objects:
  3712 ;;		On entry : 0/0
  3713 ;;		On exit  : 0/0
  3714 ;;		Unchanged: 0/0
  3715 ;; Data sizes:     COMMON   BANK0   BANK1   BANK2
  3716 ;;      Params:         0       0       0       0
  3717 ;;      Locals:         0       0       0       0
  3718 ;;      Temps:          0       0       0       0
  3719 ;;      Totals:         0       0       0       0
  3720 ;;Total ram usage:        0 bytes
  3721 ;; Hardware stack levels used:    1
  3722 ;; Hardware stack levels required when called:    3
  3723 ;; This function calls:
  3724 ;;		_setTemp_Initialization
  3725 ;; This function is called by:
  3726 ;;		_main
  3727 ;; This function uses a non-reentrant model
  3728 ;;
  3729                           
  3730                           
  3731                           ;psect for function _Temp_Initialization
  3732  0ED2                     _Temp_Initialization:	
  3733                           
  3734                           ;OverTemperature_B1.c: 10: setTemp_Initialization();
  3735                           
  3736                           ;incstack = 0
  3737                           ; Regs used in _Temp_Initialization: [status,2+status,0+pclath+cstack]
  3738  0ED2  158A  26CD         	fcall	_setTemp_Initialization
  3739  0ED4  0008               	return
  3740  0ED5                     __end_of_Temp_Initialization:	
  3741                           
  3742                           	psect	text16
  3743  0ECD                     __ptext16:	
  3744 ;; *************** function _setTemp_Initialization *****************
  3745 ;; Defined at:
  3746 ;;		line 45 in file "../src/OverTemperature_B1.c"
  3747 ;; Parameters:    Size  Location     Type
  3748 ;;		None
  3749 ;; Auto vars:     Size  Location     Type
  3750 ;;		None
  3751 ;; Return value:  Size  Location     Type
  3752 ;;		None               void
  3753 ;; Registers used:
  3754 ;;		None
  3755 ;; Tracked objects:
  3756 ;;		On entry : 0/0
  3757 ;;		On exit  : 0/0
  3758 ;;		Unchanged: 0/0
  3759 ;; Data sizes:     COMMON   BANK0   BANK1   BANK2
  3760 ;;      Params:         0       0       0       0
  3761 ;;      Locals:         0       0       0       0
  3762 ;;      Temps:          0       0       0       0
  3763 ;;      Totals:         0       0       0       0
  3764 ;;Total ram usage:        0 bytes
  3765 ;; Hardware stack levels used:    1
  3766 ;; Hardware stack levels required when called:    2
  3767 ;; This function calls:
  3768 ;;		Nothing
  3769 ;; This function is called by:
  3770 ;;		_Temp_Initialization
  3771 ;; This function uses a non-reentrant model
  3772 ;;
  3773                           
  3774                           
  3775                           ;psect for function _setTemp_Initialization
  3776  0ECD                     _setTemp_Initialization:	
  3777                           
  3778                           ;incstack = 0
  3779                           ; Regs used in _setTemp_Initialization: []
  3780  0ECD  0008               	return
  3781  0ECE                     __end_of_setTemp_Initialization:	
  3782                           
  3783                           	psect	text17
  3784  0025                     __ptext17:	
  3785 ;; *************** function _PIR_Main *****************
  3786 ;; Defined at:
  3787 ;;		line 14 in file "../src/PIR_B1.c"
  3788 ;; Parameters:    Size  Location     Type
  3789 ;;		None
  3790 ;; Auto vars:     Size  Location     Type
  3791 ;;  error           1   16[BANK0 ] unsigned char 
  3792 ;; Return value:  Size  Location     Type
  3793 ;;		None               void
  3794 ;; Registers used:
  3795 ;;		wreg, fsr0l, fsr0h, status,2, status,0, pclath, cstack
  3796 ;; Tracked objects:
  3797 ;;		On entry : 0/0
  3798 ;;		On exit  : 0/0
  3799 ;;		Unchanged: 0/0
  3800 ;; Data sizes:     COMMON   BANK0   BANK1   BANK2
  3801 ;;      Params:         0       0       0       0
  3802 ;;      Locals:         0       3       0       0
  3803 ;;      Temps:          0       5       0       0
  3804 ;;      Totals:         0       8       0       0
  3805 ;;Total ram usage:        8 bytes
  3806 ;; Hardware stack levels used:    1
  3807 ;; Hardware stack levels required when called:    5
  3808 ;; This function calls:
  3809 ;;		_getLights_Status
  3810 ;;		_getMain_All_Error_Status
  3811 ;;		_setLED
  3812 ;;		_setLights_Trigger
  3813 ;;		_setMain_Exception
  3814 ;; This function is called by:
  3815 ;;		_main
  3816 ;; This function uses a non-reentrant model
  3817 ;;
  3818                           
  3819                           
  3820                           ;psect for function _PIR_Main
  3821  0025                     _PIR_Main:	
  3822                           
  3823                           ;PIR_B1.c: 15: char error = getMain_All_Error_Status(0);
  3824                           
  3825                           ;incstack = 0
  3826                           ; Regs used in _PIR_Main: [wreg-fsr0h+status,2+status,0+pclath+cstack]
  3827  0025  3000               	movlw	0
  3828  0026  118A  266D  118A   	fcall	_getMain_All_Error_Status
  3829  0029  1283               	bcf	3,5	;RP0=0, select bank0
  3830  002A  1303               	bcf	3,6	;RP1=0, select bank0
  3831  002B  00DF               	movwf	??_PIR_Main
  3832  002C  085F               	movf	??_PIR_Main,w
  3833  002D  00E6               	movwf	PIR_Main@error
  3834                           
  3835                           ;PIR_B1.c: 16: if (_PIR.Enable == 1) {
  3836  002E  1683               	bsf	3,5	;RP0=1, select bank1
  3837  002F  1303               	bcf	3,6	;RP1=0, select bank1
  3838  0030  1C20               	btfss	__PIR^(0+128),0
  3839  0031  29EC               	goto	l721
  3840                           
  3841                           ;PIR_B1.c: 17: if (error == 0) {
  3842  0032  1283               	bcf	3,5	;RP0=0, select bank0
  3843  0033  1303               	bcf	3,6	;RP1=0, select bank0
  3844  0034  08E6               	movf	PIR_Main@error,f
  3845  0035  1D03               	skipz
  3846  0036  284D               	goto	l722
  3847                           
  3848                           ;PIR_B1.c: 18: if (_PIR.Detect == 0) {
  3849  0037  1683               	bsf	3,5	;RP0=1, select bank1
  3850  0038  1303               	bcf	3,6	;RP1=0, select bank1
  3851  0039  1A20               	btfsc	__PIR^(0+128),4
  3852  003A  287B               	goto	l3815
  3853                           
  3854                           ;PIR_B1.c: 19: _PIR.Detect = 1;
  3855  003B  1620               	bsf	__PIR^(0+128),4
  3856                           
  3857                           ;PIR_B1.c: 20: _PIR.Available = 1;
  3858  003C  17A0               	bsf	__PIR^(0+128),7
  3859                           
  3860                           ;PIR_B1.c: 21: setLED(1, 0);
  3861  003D  01F6               	clrf	setLED@command
  3862  003E  3001               	movlw	1
  3863  003F  118A  23B2  118A   	fcall	_setLED
  3864                           
  3865                           ;PIR_B1.c: 22: if (_PIR.OK == 0) {
  3866  0042  1683               	bsf	3,5	;RP0=1, select bank1
  3867  0043  1303               	bcf	3,6	;RP1=0, select bank1
  3868  0044  19A0               	btfsc	__PIR^(0+128),3
  3869  0045  287B               	goto	l3815
  3870                           
  3871                           ;PIR_B1.c: 23: setLED(2, 1);
  3872  0046  01F6               	clrf	setLED@command
  3873  0047  0AF6               	incf	setLED@command,f
  3874  0048  3002               	movlw	2
  3875  0049  118A  23B2  118A   	fcall	_setLED
  3876                           
  3877                           ;PIR_B1.c: 31: }
  3878                           ;PIR_B1.c: 32: }
  3879                           ;PIR_B1.c: 33: } else {
  3880  004C  287B               	goto	l3815
  3881  004D                     l722:	
  3882                           
  3883                           ;PIR_B1.c: 34: if (_PIR.Detect == 1) {
  3884  004D  1683               	bsf	3,5	;RP0=1, select bank1
  3885  004E  1303               	bcf	3,6	;RP1=0, select bank1
  3886  004F  1E20               	btfss	__PIR^(0+128),4
  3887  0050  287B               	goto	l3815
  3888                           
  3889                           ;PIR_B1.c: 35: setMain_Exception(error);
  3890  0051  1283               	bcf	3,5	;RP0=0, select bank0
  3891  0052  1303               	bcf	3,6	;RP1=0, select bank0
  3892  0053  0866               	movf	PIR_Main@error,w
  3893  0054  118A  262E  118A   	fcall	_setMain_Exception
  3894                           
  3895                           ;PIR_B1.c: 37: _PIR.Detect = 0;
  3896  0057  1683               	bsf	3,5	;RP0=1, select bank1
  3897  0058  1303               	bcf	3,6	;RP1=0, select bank1
  3898  0059  1220               	bcf	__PIR^(0+128),4
  3899                           
  3900                           ;PIR_B1.c: 38: _PIR.Available = 0;
  3901  005A  13A0               	bcf	__PIR^(0+128),7
  3902                           
  3903                           ;PIR_B1.c: 39: _PIR.Status = 0;
  3904  005B  1320               	bcf	__PIR^(0+128),6
  3905                           
  3906                           ;PIR_B1.c: 42: _PIR.Time = 0;
  3907  005C  01A5               	clrf	(__PIR^(0+128)+5)
  3908                           
  3909                           ;PIR_B1.c: 43: _PIR.RangeTime1 = 0;
  3910  005D  01CA               	clrf	(__PIR^(0+128)+42)
  3911                           
  3912                           ;PIR_B1.c: 44: _PIR.RangeValue = 15;
  3913  005E  300F               	movlw	15
  3914  005F  1283               	bcf	3,5	;RP0=0, select bank0
  3915  0060  1303               	bcf	3,6	;RP1=0, select bank0
  3916  0061  00DF               	movwf	??_PIR_Main
  3917  0062  085F               	movf	??_PIR_Main,w
  3918  0063  1683               	bsf	3,5	;RP0=1, select bank1
  3919  0064  1303               	bcf	3,6	;RP1=0, select bank1
  3920  0065  00CC               	movwf	(__PIR^(0+128)+44)
  3921                           
  3922                           ;PIR_B1.c: 45: _PIR.RangeCount = 0;
  3923  0066  01CB               	clrf	(__PIR^(0+128)+43)
  3924                           
  3925                           ;PIR_B1.c: 47: setLED(1, 1);
  3926  0067  01F6               	clrf	setLED@command
  3927  0068  0AF6               	incf	setLED@command,f
  3928  0069  3001               	movlw	1
  3929  006A  118A  23B2  118A   	fcall	_setLED
  3930                           
  3931                           ;PIR_B1.c: 48: setLED(2, 0);
  3932  006D  01F6               	clrf	setLED@command
  3933  006E  3002               	movlw	2
  3934  006F  118A  23B2  118A   	fcall	_setLED
  3935                           
  3936                           ;PIR_B1.c: 50: if (_PIR.OK == 1) {
  3937  0072  1683               	bsf	3,5	;RP0=1, select bank1
  3938  0073  1303               	bcf	3,6	;RP1=0, select bank1
  3939  0074  1DA0               	btfss	__PIR^(0+128),3
  3940  0075  2878               	goto	l727
  3941                           
  3942                           ;PIR_B1.c: 51: _PIR.Count = 0;
  3943  0076  01C1               	clrf	(__PIR^(0+128)+33)
  3944  0077  01C2               	clrf	((__PIR+1)^(0+128)+33)
  3945  0078                     l727:	
  3946                           
  3947                           ;PIR_B1.c: 52: }
  3948                           ;PIR_B1.c: 53: _PIR.CloseTimeSeconds = 0;
  3949  0078  01C6               	clrf	(__PIR^(0+128)+38)
  3950                           
  3951                           ;PIR_B1.c: 54: _PIR.CloseTimeMinutes = 0;
  3952  0079  01C4               	clrf	(__PIR^(0+128)+36)
  3953  007A  01C5               	clrf	((__PIR+1)^(0+128)+36)
  3954  007B                     l3815:	
  3955                           
  3956                           ;PIR_B1.c: 55: }
  3957                           ;PIR_B1.c: 56: }
  3958                           ;PIR_B1.c: 58: if (_PIR.ADtoGO == 0) {
  3959  007B  1683               	bsf	3,5	;RP0=1, select bank1
  3960  007C  1303               	bcf	3,6	;RP1=0, select bank1
  3961  007D  18A0               	btfsc	__PIR^(0+128),1
  3962  007E  288E               	goto	l728
  3963                           
  3964                           ;PIR_B1.c: 59: _PIR.Time++;
  3965  007F  3001               	movlw	1
  3966  0080  1283               	bcf	3,5	;RP0=0, select bank0
  3967  0081  1303               	bcf	3,6	;RP1=0, select bank0
  3968  0082  00DF               	movwf	??_PIR_Main
  3969  0083  085F               	movf	??_PIR_Main,w
  3970  0084  1683               	bsf	3,5	;RP0=1, select bank1
  3971  0085  1303               	bcf	3,6	;RP1=0, select bank1
  3972  0086  07A5               	addwf	(__PIR^(0+128)+5),f
  3973                           
  3974                           ;PIR_B1.c: 60: if (_PIR.Time == 10) {
  3975  0087  0825               	movf	(__PIR^(0+128)+5),w
  3976  0088  3A0A               	xorlw	10
  3977  0089  1D03               	skipz
  3978  008A  29A4               	goto	l3899
  3979                           
  3980                           ;PIR_B1.c: 61: _PIR.Time = 0;
  3981  008B  01A5               	clrf	(__PIR^(0+128)+5)
  3982                           
  3983                           ;PIR_B1.c: 62: _PIR.ADtoGO = 1;
  3984  008C  14A0               	bsf	__PIR^(0+128),1
  3985                           
  3986                           ;PIR_B1.c: 63: }
  3987                           ;PIR_B1.c: 64: } else {
  3988  008D  29A4               	goto	l3899
  3989  008E                     l728:	
  3990                           
  3991                           ;PIR_B1.c: 65: if (_PIR.GO == 1) {
  3992  008E  1D20               	btfss	__PIR^(0+128),2
  3993  008F  29A4               	goto	l3899
  3994                           
  3995                           ;PIR_B1.c: 66: _PIR.GO = 0;
  3996  0090  1120               	bcf	__PIR^(0+128),2
  3997                           
  3998                           ;PIR_B1.c: 67: if (_PIR.Available == 1) {
  3999  0091  1BA0               	btfsc	__PIR^(0+128),7
  4000                           
  4001                           ;PIR_B1.c: 68: if (_PIR.OK == 1) {
  4002  0092  1DA0               	btfss	__PIR^(0+128),3
  4003  0093  29A4               	goto	l3899
  4004                           
  4005                           ;PIR_B1.c: 70: _PIR.Time++;
  4006  0094  3001               	movlw	1
  4007  0095  1283               	bcf	3,5	;RP0=0, select bank0
  4008  0096  1303               	bcf	3,6	;RP1=0, select bank0
  4009  0097  00DF               	movwf	??_PIR_Main
  4010  0098  085F               	movf	??_PIR_Main,w
  4011  0099  1683               	bsf	3,5	;RP0=1, select bank1
  4012  009A  1303               	bcf	3,6	;RP1=0, select bank1
  4013  009B  07A5               	addwf	(__PIR^(0+128)+5),f
  4014                           
  4015                           ;PIR_B1.c: 71: if (_PIR.Time == 60) {
  4016  009C  0825               	movf	(__PIR^(0+128)+5),w
  4017  009D  3A3C               	xorlw	60
  4018  009E  1D03               	skipz
  4019  009F  28D4               	goto	l3865
  4020                           
  4021                           ;PIR_B1.c: 72: _PIR.Time = 0;
  4022  00A0  01A5               	clrf	(__PIR^(0+128)+5)
  4023                           
  4024                           ;PIR_B1.c: 73: if (_PIR.RangeCount >= 90) {
  4025  00A1  305A               	movlw	90
  4026  00A2  024B               	subwf	(__PIR^(0+128)+43),w
  4027  00A3  1C03               	skipc
  4028  00A4  28B0               	goto	l3847
  4029                           
  4030                           ;PIR_B1.c: 74: _PIR.RangeTime1 = 0;
  4031  00A5  01CA               	clrf	(__PIR^(0+128)+42)
  4032                           
  4033                           ;PIR_B1.c: 76: if (_PIR.RangeValue == 15) {
  4034  00A6  084C               	movf	(__PIR^(0+128)+44),w
  4035  00A7  3A0F               	xorlw	15
  4036  00A8  1903               	btfsc	3,2
  4037  00A9  28C5               	goto	L13
  4038                           
  4039                           ;PIR_B1.c: 78: } else if (_PIR.RangeValue == 25) {
  4040                           
  4041                           ;PIR_B1.c: 77: _PIR.RangeValue = 25;
  4042  00AA  084C               	movf	(__PIR^(0+128)+44),w
  4043  00AB  3A19               	xorlw	25
  4044  00AC  1D03               	skipz
  4045  00AD  28D3               	goto	l3863
  4046                           
  4047                           ;PIR_B1.c: 79: _PIR.RangeValue = 35;
  4048  00AE  3023               	movlw	35
  4049  00AF  28CC               	goto	L9
  4050  00B0                     l3847:	
  4051                           ;PIR_B1.c: 80: }
  4052                           ;PIR_B1.c: 81: } else if (_PIR.RangeCount <= 10) {
  4053                           
  4054  00B0  300B               	movlw	11
  4055  00B1  024B               	subwf	(__PIR^(0+128)+43),w
  4056  00B2  1803               	skipnc
  4057  00B3  28D3               	goto	l3863
  4058                           
  4059                           ;PIR_B1.c: 82: _PIR.RangeTime1++;
  4060  00B4  3001               	movlw	1
  4061  00B5  1283               	bcf	3,5	;RP0=0, select bank0
  4062  00B6  1303               	bcf	3,6	;RP1=0, select bank0
  4063  00B7  00DF               	movwf	??_PIR_Main
  4064  00B8  085F               	movf	??_PIR_Main,w
  4065  00B9  1683               	bsf	3,5	;RP0=1, select bank1
  4066  00BA  1303               	bcf	3,6	;RP1=0, select bank1
  4067  00BB  07CA               	addwf	(__PIR^(0+128)+42),f
  4068                           
  4069                           ;PIR_B1.c: 83: if (_PIR.RangeTime1 == 2) {
  4070  00BC  084A               	movf	(__PIR^(0+128)+42),w
  4071  00BD  3A02               	xorlw	2
  4072  00BE  1D03               	skipz
  4073  00BF  28D3               	goto	l3863
  4074                           
  4075                           ;PIR_B1.c: 84: _PIR.RangeTime1 = 0;
  4076  00C0  01CA               	clrf	(__PIR^(0+128)+42)
  4077                           
  4078                           ;PIR_B1.c: 86: if (_PIR.RangeValue == 35) {
  4079  00C1  084C               	movf	(__PIR^(0+128)+44),w
  4080  00C2  3A23               	xorlw	35
  4081  00C3  1D03               	skipz
  4082  00C4  28C7               	goto	l3859
  4083  00C5                     L13:	
  4084                           
  4085                           ;PIR_B1.c: 87: _PIR.RangeValue = 25;
  4086  00C5  3019               	movlw	25
  4087  00C6  28CC               	goto	L9
  4088  00C7                     l3859:	
  4089                           ;PIR_B1.c: 88: } else if (_PIR.RangeValue == 25) {
  4090                           
  4091  00C7  084C               	movf	(__PIR^(0+128)+44),w
  4092  00C8  3A19               	xorlw	25
  4093  00C9  1D03               	skipz
  4094  00CA  28D3               	goto	l3863
  4095                           
  4096                           ;PIR_B1.c: 89: _PIR.RangeValue = 15;
  4097  00CB  300F               	movlw	15
  4098  00CC                     L9:	
  4099  00CC  1283               	bcf	3,5	;RP0=0, select bank0
  4100  00CD  1303               	bcf	3,6	;RP1=0, select bank0
  4101  00CE  00DF               	movwf	??_PIR_Main
  4102  00CF  085F               	movf	??_PIR_Main,w
  4103  00D0  1683               	bsf	3,5	;RP0=1, select bank1
  4104  00D1  1303               	bcf	3,6	;RP1=0, select bank1
  4105  00D2  00CC               	movwf	(__PIR^(0+128)+44)
  4106  00D3                     l3863:	
  4107                           
  4108                           ;PIR_B1.c: 90: }
  4109                           ;PIR_B1.c: 91: }
  4110                           ;PIR_B1.c: 92: }
  4111                           ;PIR_B1.c: 93: _PIR.RangeCount = 0;
  4112  00D3  01CB               	clrf	(__PIR^(0+128)+43)
  4113  00D4                     l3865:	
  4114                           
  4115                           ;PIR_B1.c: 94: }
  4116                           ;PIR_B1.c: 97: if ((_PIR.SignalAD >= (_PIR.ReferenceVoltage - (_PIR.RangeValue + _PIR.Of
      +                          fset)))
  4117                           ;PIR_B1.c: 98: && (_PIR.SignalAD <= (_PIR.ReferenceVoltage + (_PIR.RangeValue + _PIR.Off
      +                          set)))) {
  4118  00D4  084C               	movf	(__PIR^(0+128)+44),w
  4119  00D5  074E               	addwf	(__PIR^(0+128)+46),w
  4120  00D6  1283               	bcf	3,5	;RP0=0, select bank0
  4121  00D7  1303               	bcf	3,6	;RP1=0, select bank0
  4122  00D8  00DF               	movwf	??_PIR_Main
  4123  00D9  01E0               	clrf	??_PIR_Main+1
  4124  00DA  0DE0               	rlf	??_PIR_Main+1,f
  4125  00DB  09DF               	comf	??_PIR_Main,f
  4126  00DC  09E0               	comf	??_PIR_Main+1,f
  4127  00DD  0ADF               	incf	??_PIR_Main,f
  4128  00DE  1903               	skipnz
  4129  00DF  0AE0               	incf	??_PIR_Main+1,f
  4130  00E0  1683               	bsf	3,5	;RP0=1, select bank1
  4131  00E1  1303               	bcf	3,6	;RP1=0, select bank1
  4132  00E2  0826               	movf	(__PIR^(0+128)+6),w
  4133  00E3  1283               	bcf	3,5	;RP0=0, select bank0
  4134  00E4  1303               	bcf	3,6	;RP1=0, select bank0
  4135  00E5  075F               	addwf	??_PIR_Main,w
  4136  00E6  00E1               	movwf	??_PIR_Main+2
  4137  00E7  0860               	movf	??_PIR_Main+1,w
  4138  00E8  1803               	skipnc
  4139  00E9  0A60               	incf	??_PIR_Main+1,w
  4140  00EA  00E2               	movwf	??_PIR_Main+3
  4141  00EB  0862               	movf	??_PIR_Main+3,w
  4142  00EC  3A80               	xorlw	128
  4143  00ED  3C80               	sublw	128
  4144  00EE  1D03               	skipz
  4145  00EF  28F4               	goto	u4455
  4146  00F0  0861               	movf	??_PIR_Main+2,w
  4147  00F1  1683               	bsf	3,5	;RP0=1, select bank1
  4148  00F2  1303               	bcf	3,6	;RP1=0, select bank1
  4149  00F3  0221               	subwf	(__PIR^(0+128)+1),w
  4150  00F4                     u4455:	
  4151  00F4  1C03               	skipc
  4152  00F5  2920               	goto	l3875
  4153  00F6  1683               	bsf	3,5	;RP0=1, select bank1
  4154  00F7  1303               	bcf	3,6	;RP1=0, select bank1
  4155  00F8  084C               	movf	(__PIR^(0+128)+44),w
  4156  00F9  074E               	addwf	(__PIR^(0+128)+46),w
  4157  00FA  1283               	bcf	3,5	;RP0=0, select bank0
  4158  00FB  1303               	bcf	3,6	;RP1=0, select bank0
  4159  00FC  00DF               	movwf	??_PIR_Main
  4160  00FD  01E0               	clrf	??_PIR_Main+1
  4161  00FE  0DE0               	rlf	??_PIR_Main+1,f
  4162  00FF  1683               	bsf	3,5	;RP0=1, select bank1
  4163  0100  1303               	bcf	3,6	;RP1=0, select bank1
  4164  0101  0826               	movf	(__PIR^(0+128)+6),w
  4165  0102  1283               	bcf	3,5	;RP0=0, select bank0
  4166  0103  1303               	bcf	3,6	;RP1=0, select bank0
  4167  0104  075F               	addwf	??_PIR_Main,w
  4168  0105  00E1               	movwf	??_PIR_Main+2
  4169  0106  3000               	movlw	0
  4170  0107  1803               	skipnc
  4171  0108  3001               	movlw	1
  4172  0109  0760               	addwf	??_PIR_Main+1,w
  4173  010A  00E2               	movwf	??_PIR_Main+3
  4174  010B  0862               	movf	??_PIR_Main+3,w
  4175  010C  3A80               	xorlw	128
  4176  010D  00E3               	movwf	??_PIR_Main+4
  4177  010E  3080               	movlw	128
  4178  010F  0263               	subwf	??_PIR_Main+4,w
  4179  0110  1D03               	skipz
  4180  0111  2918               	goto	u4465
  4181  0112  1683               	bsf	3,5	;RP0=1, select bank1
  4182  0113  1303               	bcf	3,6	;RP1=0, select bank1
  4183  0114  0821               	movf	(__PIR^(0+128)+1),w
  4184  0115  1283               	bcf	3,5	;RP0=0, select bank0
  4185  0116  1303               	bcf	3,6	;RP1=0, select bank0
  4186  0117  0261               	subwf	??_PIR_Main+2,w
  4187  0118                     u4465:	
  4188  0118  1C03               	skipc
  4189  0119  2920               	goto	l3875
  4190                           
  4191                           ;PIR_B1.c: 99: _PIR.Count = 0;
  4192  011A  1683               	bsf	3,5	;RP0=1, select bank1
  4193  011B  1303               	bcf	3,6	;RP1=0, select bank1
  4194  011C  01C1               	clrf	(__PIR^(0+128)+33)
  4195  011D  01C2               	clrf	((__PIR+1)^(0+128)+33)
  4196                           
  4197                           ;PIR_B1.c: 100: setLED(1, 0);
  4198  011E  01F6               	clrf	setLED@command
  4199  011F  2993               	goto	L14
  4200  0120                     l3875:	
  4201                           ;PIR_B1.c: 102: } else {
  4202                           
  4203                           ;PIR_B1.c: 101: setLED(2, 0);
  4204                           
  4205                           
  4206                           ;PIR_B1.c: 103: _PIR.RangeCount++;
  4207  0120  3001               	movlw	1
  4208  0121  1283               	bcf	3,5	;RP0=0, select bank0
  4209  0122  1303               	bcf	3,6	;RP1=0, select bank0
  4210  0123  00DF               	movwf	??_PIR_Main
  4211  0124  085F               	movf	??_PIR_Main,w
  4212  0125  1683               	bsf	3,5	;RP0=1, select bank1
  4213  0126  1303               	bcf	3,6	;RP1=0, select bank1
  4214  0127  07CB               	addwf	(__PIR^(0+128)+43),f
  4215                           
  4216                           ;PIR_B1.c: 104: _PIR.Count++;
  4217  0128  3001               	movlw	1
  4218  0129  07C1               	addwf	(__PIR^(0+128)+33),f
  4219  012A  1803               	skipnc
  4220  012B  0AC2               	incf	((__PIR+1)^(0+128)+33),f
  4221  012C  3000               	movlw	0
  4222  012D  07C2               	addwf	((__PIR+1)^(0+128)+33),f
  4223                           
  4224                           ;PIR_B1.c: 106: _PIR.TriggerValue = _PIR.Status == 1 ? 3 : 2;
  4225  012E  1B20               	btfsc	__PIR^(0+128),6
  4226  012F  2934               	goto	l3883
  4227  0130  3002               	movlw	2
  4228  0131  1283               	bcf	3,5	;RP0=0, select bank0
  4229  0132  1303               	bcf	3,6	;RP1=0, select bank0
  4230  0133  2936               	goto	L10
  4231  0134                     l3883:	
  4232  0134  3003               	movlw	3
  4233  0135  1283               	bcf	3,5	;RP0=0, select bank0
  4234  0136                     L10:	
  4235  0136  00E4               	movwf	_PIR_Main$2715
  4236  0137  3000               	movlw	0
  4237  0138  00E5               	movwf	_PIR_Main$2715+1
  4238  0139  0864               	movf	_PIR_Main$2715,w
  4239  013A  00DF               	movwf	??_PIR_Main
  4240  013B  085F               	movf	??_PIR_Main,w
  4241  013C  1683               	bsf	3,5	;RP0=1, select bank1
  4242  013D  1303               	bcf	3,6	;RP1=0, select bank1
  4243  013E  00C3               	movwf	(__PIR^(0+128)+35)
  4244                           
  4245                           ;PIR_B1.c: 108: if (_PIR.Count == _PIR.TriggerValue) {
  4246  013F  0843               	movf	(__PIR^(0+128)+35),w
  4247  0140  1283               	bcf	3,5	;RP0=0, select bank0
  4248  0141  1303               	bcf	3,6	;RP1=0, select bank0
  4249  0142  00DF               	movwf	??_PIR_Main
  4250  0143  01E0               	clrf	??_PIR_Main+1
  4251  0144  1683               	bsf	3,5	;RP0=1, select bank1
  4252  0145  1303               	bcf	3,6	;RP1=0, select bank1
  4253  0146  0842               	movf	((__PIR+1)^(0+128)+33),w
  4254  0147  1283               	bcf	3,5	;RP0=0, select bank0
  4255  0148  1303               	bcf	3,6	;RP1=0, select bank0
  4256  0149  0660               	xorwf	??_PIR_Main+1,w
  4257  014A  1D03               	skipz
  4258  014B  2952               	goto	u4485
  4259  014C  1683               	bsf	3,5	;RP0=1, select bank1
  4260  014D  1303               	bcf	3,6	;RP1=0, select bank1
  4261  014E  0841               	movf	(__PIR^(0+128)+33),w
  4262  014F  1283               	bcf	3,5	;RP0=0, select bank0
  4263  0150  1303               	bcf	3,6	;RP1=0, select bank0
  4264  0151  065F               	xorwf	??_PIR_Main,w
  4265  0152                     u4485:	
  4266  0152  1D03               	skipz
  4267  0153  29A4               	goto	l3899
  4268                           
  4269                           ;PIR_B1.c: 109: _PIR.Count = 0;
  4270  0154  1683               	bsf	3,5	;RP0=1, select bank1
  4271  0155  1303               	bcf	3,6	;RP1=0, select bank1
  4272  0156  01C1               	clrf	(__PIR^(0+128)+33)
  4273  0157  01C2               	clrf	((__PIR+1)^(0+128)+33)
  4274                           
  4275                           ;PIR_B1.c: 110: _PIR.CloseTimeSeconds = 0;
  4276  0158  01C6               	clrf	(__PIR^(0+128)+38)
  4277                           
  4278                           ;PIR_B1.c: 111: _PIR.CloseTimeMinutes = 0;
  4279  0159  01C4               	clrf	(__PIR^(0+128)+36)
  4280  015A  01C5               	clrf	((__PIR+1)^(0+128)+36)
  4281                           
  4282                           ;PIR_B1.c: 112: _PIR.Status = 1;
  4283  015B  1720               	bsf	__PIR^(0+128),6
  4284                           
  4285                           ;PIR_B1.c: 115: if (getLights_Status(1) == 0) {
  4286  015C  3001               	movlw	1
  4287  015D  158A  277C  118A   	fcall	_getLights_Status
  4288  0160  3800               	iorlw	0
  4289  0161  1D03               	skipz
  4290  0162  2969               	goto	l3893
  4291                           
  4292                           ;PIR_B1.c: 116: setLights_Trigger(1, 1);
  4293  0163  01F6               	clrf	setLights_Trigger@command
  4294  0164  0AF6               	incf	setLights_Trigger@command,f
  4295  0165  3001               	movlw	1
  4296  0166  118A  27B7  118A   	fcall	_setLights_Trigger
  4297  0169                     l3893:	
  4298                           
  4299                           ;PIR_B1.c: 117: }
  4300                           ;PIR_B1.c: 120: if ((_PIR.SignalAD <= (_PIR.ReferenceVoltage - (_PIR.RangeValue + _PIR.O
      +                          ffset)))) {
  4301  0169  1683               	bsf	3,5	;RP0=1, select bank1
  4302  016A  1303               	bcf	3,6	;RP1=0, select bank1
  4303  016B  084C               	movf	(__PIR^(0+128)+44),w
  4304  016C  074E               	addwf	(__PIR^(0+128)+46),w
  4305  016D  1283               	bcf	3,5	;RP0=0, select bank0
  4306  016E  1303               	bcf	3,6	;RP1=0, select bank0
  4307  016F  00DF               	movwf	??_PIR_Main
  4308  0170  01E0               	clrf	??_PIR_Main+1
  4309  0171  0DE0               	rlf	??_PIR_Main+1,f
  4310  0172  09DF               	comf	??_PIR_Main,f
  4311  0173  09E0               	comf	??_PIR_Main+1,f
  4312  0174  0ADF               	incf	??_PIR_Main,f
  4313  0175  1903               	skipnz
  4314  0176  0AE0               	incf	??_PIR_Main+1,f
  4315  0177  1683               	bsf	3,5	;RP0=1, select bank1
  4316  0178  1303               	bcf	3,6	;RP1=0, select bank1
  4317  0179  0826               	movf	(__PIR^(0+128)+6),w
  4318  017A  1283               	bcf	3,5	;RP0=0, select bank0
  4319  017B  1303               	bcf	3,6	;RP1=0, select bank0
  4320  017C  075F               	addwf	??_PIR_Main,w
  4321  017D  00E1               	movwf	??_PIR_Main+2
  4322  017E  0860               	movf	??_PIR_Main+1,w
  4323  017F  1803               	skipnc
  4324  0180  0A60               	incf	??_PIR_Main+1,w
  4325  0181  00E2               	movwf	??_PIR_Main+3
  4326  0182  0862               	movf	??_PIR_Main+3,w
  4327  0183  3A80               	xorlw	128
  4328  0184  00E3               	movwf	??_PIR_Main+4
  4329  0185  3080               	movlw	128
  4330  0186  0263               	subwf	??_PIR_Main+4,w
  4331  0187  1D03               	skipz
  4332  0188  298F               	goto	u4505
  4333  0189  1683               	bsf	3,5	;RP0=1, select bank1
  4334  018A  1303               	bcf	3,6	;RP1=0, select bank1
  4335  018B  0821               	movf	(__PIR^(0+128)+1),w
  4336  018C  1283               	bcf	3,5	;RP0=0, select bank0
  4337  018D  1303               	bcf	3,6	;RP1=0, select bank0
  4338  018E  0261               	subwf	??_PIR_Main+2,w
  4339  018F                     u4505:	
  4340  018F  1C03               	skipc
  4341  0190  2999               	goto	l3897
  4342                           
  4343                           ;PIR_B1.c: 121: setLED(1, 1);
  4344  0191  01F6               	clrf	setLED@command
  4345  0192  0AF6               	incf	setLED@command,f
  4346  0193                     L14:	
  4347  0193  3001               	movlw	1
  4348  0194  118A  23B2  118A   	fcall	_setLED
  4349                           
  4350                           ;PIR_B1.c: 122: setLED(2, 0);
  4351  0197  01F6               	clrf	setLED@command
  4352  0198  29A0               	goto	L11
  4353  0199                     l3897:	
  4354                           ;PIR_B1.c: 123: } else {
  4355                           
  4356                           
  4357                           ;PIR_B1.c: 124: setLED(1, 0);
  4358  0199  01F6               	clrf	setLED@command
  4359  019A  3001               	movlw	1
  4360  019B  118A  23B2  118A   	fcall	_setLED
  4361                           
  4362                           ;PIR_B1.c: 125: setLED(2, 1);
  4363  019E  01F6               	clrf	setLED@command
  4364  019F  0AF6               	incf	setLED@command,f
  4365  01A0                     L11:	
  4366  01A0  3002               	movlw	2
  4367  01A1  118A  23B2  118A   	fcall	_setLED
  4368  01A4                     l3899:	
  4369                           
  4370                           ;PIR_B1.c: 126: }
  4371                           ;PIR_B1.c: 127: }
  4372                           ;PIR_B1.c: 128: }
  4373                           ;PIR_B1.c: 129: }
  4374                           ;PIR_B1.c: 130: }
  4375                           ;PIR_B1.c: 131: }
  4376                           ;PIR_B1.c: 132: }
  4377                           ;PIR_B1.c: 133: if (_PIR.OK == 0) {
  4378  01A4  1683               	bsf	3,5	;RP0=1, select bank1
  4379  01A5  1303               	bcf	3,6	;RP1=0, select bank1
  4380  01A6  19A0               	btfsc	__PIR^(0+128),3
  4381  01A7  29BE               	goto	l3909
  4382                           
  4383                           ;PIR_B1.c: 134: _PIR.Count++;
  4384  01A8  3001               	movlw	1
  4385  01A9  07C1               	addwf	(__PIR^(0+128)+33),f
  4386  01AA  1803               	skipnc
  4387  01AB  0AC2               	incf	((__PIR+1)^(0+128)+33),f
  4388  01AC  3000               	movlw	0
  4389  01AD  07C2               	addwf	((__PIR+1)^(0+128)+33),f
  4390                           
  4391                           ;PIR_B1.c: 135: if (_PIR.Count == 3000) {
  4392  01AE  300B               	movlw	11
  4393  01AF  0642               	xorwf	((__PIR+1)^(0+128)+33),w
  4394  01B0  1D03               	skipz
  4395  01B1  29B4               	goto	u4525
  4396  01B2  30B8               	movlw	184
  4397  01B3  0641               	xorwf	(__PIR^(0+128)+33),w
  4398  01B4                     u4525:	
  4399  01B4  1D03               	skipz
  4400  01B5  29BE               	goto	l3909
  4401                           
  4402                           ;PIR_B1.c: 136: _PIR.Count = 0;
  4403  01B6  01C1               	clrf	(__PIR^(0+128)+33)
  4404  01B7  01C2               	clrf	((__PIR+1)^(0+128)+33)
  4405                           
  4406                           ;PIR_B1.c: 137: _PIR.OK = 1;
  4407  01B8  15A0               	bsf	__PIR^(0+128),3
  4408                           
  4409                           ;PIR_B1.c: 138: setLED(2, 0);
  4410  01B9  01F6               	clrf	setLED@command
  4411  01BA  3002               	movlw	2
  4412  01BB  118A  23B2  118A   	fcall	_setLED
  4413  01BE                     l3909:	
  4414                           
  4415                           ;PIR_B1.c: 139: }
  4416                           ;PIR_B1.c: 140: }
  4417                           ;PIR_B1.c: 141: if (_PIR.Status == 1) {
  4418  01BE  1683               	bsf	3,5	;RP0=1, select bank1
  4419  01BF  1303               	bcf	3,6	;RP1=0, select bank1
  4420  01C0  1F20               	btfss	__PIR^(0+128),6
  4421  01C1  0008               	return
  4422                           
  4423                           ;PIR_B1.c: 142: _PIR.CloseTimeSeconds++;
  4424  01C2  3001               	movlw	1
  4425  01C3  1283               	bcf	3,5	;RP0=0, select bank0
  4426  01C4  1303               	bcf	3,6	;RP1=0, select bank0
  4427  01C5  00DF               	movwf	??_PIR_Main
  4428  01C6  085F               	movf	??_PIR_Main,w
  4429  01C7  1683               	bsf	3,5	;RP0=1, select bank1
  4430  01C8  1303               	bcf	3,6	;RP1=0, select bank1
  4431  01C9  07C6               	addwf	(__PIR^(0+128)+38),f
  4432                           
  4433                           ;PIR_B1.c: 143: if (_PIR.CloseTimeSeconds == 100) {
  4434  01CA  0846               	movf	(__PIR^(0+128)+38),w
  4435  01CB  3A64               	xorlw	100
  4436  01CC  1D03               	skipz
  4437  01CD  0008               	return
  4438                           
  4439                           ;PIR_B1.c: 144: _PIR.CloseTimeSeconds = 0;
  4440  01CE  01C6               	clrf	(__PIR^(0+128)+38)
  4441                           
  4442                           ;PIR_B1.c: 145: _PIR.CloseTimeMinutes++;
  4443  01CF  3001               	movlw	1
  4444  01D0  07C4               	addwf	(__PIR^(0+128)+36),f
  4445  01D1  1803               	skipnc
  4446  01D2  0AC5               	incf	((__PIR+1)^(0+128)+36),f
  4447  01D3  3000               	movlw	0
  4448  01D4  07C5               	addwf	((__PIR+1)^(0+128)+36),f
  4449                           
  4450                           ;PIR_B1.c: 146: if (_PIR.CloseTimeMinutes == _PIR.CloseTimeValue) {
  4451  01D5  0848               	movf	((__PIR+1)^(0+128)+39),w
  4452  01D6  0645               	xorwf	((__PIR+1)^(0+128)+36),w
  4453  01D7  1D03               	skipz
  4454  01D8  29DB               	goto	u4555
  4455  01D9  0847               	movf	(__PIR^(0+128)+39),w
  4456  01DA  0644               	xorwf	(__PIR^(0+128)+36),w
  4457  01DB                     u4555:	
  4458  01DB  1D03               	skipz
  4459  01DC  0008               	return
  4460                           
  4461                           ;PIR_B1.c: 147: _PIR.CloseTimeMinutes = 0;
  4462  01DD  01C4               	clrf	(__PIR^(0+128)+36)
  4463  01DE  01C5               	clrf	((__PIR+1)^(0+128)+36)
  4464                           
  4465                           ;PIR_B1.c: 148: _PIR.Status = 0;
  4466  01DF  1320               	bcf	__PIR^(0+128),6
  4467                           
  4468                           ;PIR_B1.c: 151: if (getLights_Status(1) == 1) {
  4469  01E0  3001               	movlw	1
  4470  01E1  158A  277C  118A   	fcall	_getLights_Status
  4471  01E4  3A01               	xorlw	1
  4472  01E5  1D03               	skipz
  4473  01E6  0008               	return
  4474                           
  4475                           ;PIR_B1.c: 152: setLights_Trigger(1, 0);
  4476  01E7  01F6               	clrf	setLights_Trigger@command
  4477  01E8  3001               	movlw	1
  4478  01E9  118A  27B7         	fcall	_setLights_Trigger
  4479                           
  4480                           ;PIR_B1.c: 153: }
  4481                           ;PIR_B1.c: 156: }
  4482                           ;PIR_B1.c: 157: }
  4483                           ;PIR_B1.c: 158: }
  4484                           ;PIR_B1.c: 159: } else {
  4485  01EB  0008               	return
  4486  01EC                     l721:	
  4487                           
  4488                           ;PIR_B1.c: 160: if (myMain.PowerON == 1) {
  4489  01EC  1283               	bcf	3,5	;RP0=0, select bank0
  4490  01ED  1303               	bcf	3,6	;RP1=0, select bank0
  4491  01EE  1C20               	btfss	_myMain,0
  4492  01EF  0008               	return
  4493                           
  4494                           ;PIR_B1.c: 161: _PIR.Enable = 1;
  4495  01F0  1683               	bsf	3,5	;RP0=1, select bank1
  4496  01F1  1303               	bcf	3,6	;RP1=0, select bank1
  4497  01F2  1420               	bsf	__PIR^(0+128),0
  4498  01F3  0008               	return
  4499  01F4                     __end_of_PIR_Main:	
  4500                           
  4501                           	psect	text18
  4502  062E                     __ptext18:	
  4503 ;; *************** function _setMain_Exception *****************
  4504 ;; Defined at:
  4505 ;;		line 278 in file "../src/Main_B1.c"
  4506 ;; Parameters:    Size  Location     Type
  4507 ;;  command         1    wreg     unsigned char 
  4508 ;; Auto vars:     Size  Location     Type
  4509 ;;  command         1    8[BANK0 ] unsigned char 
  4510 ;;  status          1    5[BANK0 ] unsigned char 
  4511 ;;  buz             1    4[BANK0 ] unsigned char 
  4512 ;; Return value:  Size  Location     Type
  4513 ;;		None               void
  4514 ;; Registers used:
  4515 ;;		wreg, fsr0l, fsr0h, status,2, status,0, pclath, cstack
  4516 ;; Tracked objects:
  4517 ;;		On entry : 0/0
  4518 ;;		On exit  : 0/0
  4519 ;;		Unchanged: 0/0
  4520 ;; Data sizes:     COMMON   BANK0   BANK1   BANK2
  4521 ;;      Params:         0       0       0       0
  4522 ;;      Locals:         0       5       0       0
  4523 ;;      Temps:          0       2       0       0
  4524 ;;      Totals:         0       7       0       0
  4525 ;;Total ram usage:        7 bytes
  4526 ;; Hardware stack levels used:    1
  4527 ;; Hardware stack levels required when called:    4
  4528 ;; This function calls:
  4529 ;;		_getAll_Lights_Line
  4530 ;;		_setLED
  4531 ;;		_setLights_Trigger
  4532 ;; This function is called by:
  4533 ;;		_PIR_Main
  4534 ;; This function uses a non-reentrant model
  4535 ;;
  4536                           
  4537                           
  4538                           ;psect for function _setMain_Exception
  4539  062E                     _setMain_Exception:	
  4540                           
  4541                           ;incstack = 0
  4542                           ; Regs used in _setMain_Exception: [wreg-fsr0h+status,2+status,0+pclath+cstack]
  4543                           ;setMain_Exception@command stored from wreg
  4544  062E  1283               	bcf	3,5	;RP0=0, select bank0
  4545  062F  1303               	bcf	3,6	;RP1=0, select bank0
  4546  0630  00DE               	movwf	setMain_Exception@command
  4547                           
  4548                           ;Main_B1.c: 279: char status = 0, buz = 0;
  4549  0631  01DB               	clrf	setMain_Exception@status
  4550  0632  01DA               	clrf	setMain_Exception@buz
  4551                           
  4552                           ;Main_B1.c: 281: status = command == 3 ? getAll_Lights_Line() : 255;
  4553  0633  085E               	movf	setMain_Exception@command,w
  4554  0634  3A03               	xorlw	3
  4555  0635  1903               	skipnz
  4556  0636  2E3B               	goto	l3507
  4557  0637  30FF               	movlw	255
  4558  0638  00DC               	movwf	_setMain_Exception$2047
  4559  0639  3000               	movlw	0
  4560  063A  2E45               	goto	L15
  4561  063B                     l3507:	
  4562  063B  158A  2734  118A   	fcall	_getAll_Lights_Line
  4563  063E  1283               	bcf	3,5	;RP0=0, select bank0
  4564  063F  1303               	bcf	3,6	;RP1=0, select bank0
  4565  0640  00D8               	movwf	??_setMain_Exception
  4566  0641  01D9               	clrf	??_setMain_Exception+1
  4567  0642  0858               	movf	??_setMain_Exception,w
  4568  0643  00DC               	movwf	_setMain_Exception$2047
  4569  0644  0859               	movf	??_setMain_Exception+1,w
  4570  0645                     L15:	
  4571  0645  00DD               	movwf	_setMain_Exception$2047+1
  4572  0646  085C               	movf	_setMain_Exception$2047,w
  4573  0647  00D8               	movwf	??_setMain_Exception
  4574  0648  0858               	movf	??_setMain_Exception,w
  4575  0649  00DB               	movwf	setMain_Exception@status
  4576                           
  4577                           ;Main_B1.c: 283: if (command == 0) {
  4578  064A  08DE               	movf	setMain_Exception@command,f
  4579  064B  1D03               	skipz
  4580  064C  2E4F               	goto	l3515
  4581                           
  4582                           ;Main_B1.c: 284: setLED(command, 110);
  4583  064D  306E               	movlw	110
  4584  064E  2E5A               	goto	L16
  4585  064F                     l3515:	
  4586                           ;Main_B1.c: 285: } else if (command == 5) {
  4587                           
  4588  064F  1283               	bcf	3,5	;RP0=0, select bank0
  4589  0650  1303               	bcf	3,6	;RP1=0, select bank0
  4590  0651  085E               	movf	setMain_Exception@command,w
  4591  0652  3A05               	xorlw	5
  4592  0653  1D03               	skipz
  4593  0654  2E57               	goto	l3519
  4594                           
  4595                           ;Main_B1.c: 286: __nop();
  4596  0655  0000               	nop
  4597                           
  4598                           ;Main_B1.c: 287: } else {
  4599  0656  2E61               	goto	l3521
  4600  0657                     l3519:	
  4601                           
  4602                           ;Main_B1.c: 288: setLED(command, 111);
  4603  0657  306F               	movlw	111
  4604  0658  1283               	bcf	3,5	;RP0=0, select bank0
  4605  0659  1303               	bcf	3,6	;RP1=0, select bank0
  4606  065A                     L16:	
  4607  065A  00D8               	movwf	??_setMain_Exception
  4608  065B  0858               	movf	??_setMain_Exception,w
  4609  065C  00F6               	movwf	setLED@command
  4610  065D  085E               	movf	setMain_Exception@command,w
  4611  065E  118A  23B2  118A   	fcall	_setLED
  4612  0661                     l3521:	
  4613                           
  4614                           ;Main_B1.c: 289: }
  4615                           ;Main_B1.c: 291: if (command != 0) {
  4616  0661  1283               	bcf	3,5	;RP0=0, select bank0
  4617  0662  1303               	bcf	3,6	;RP1=0, select bank0
  4618  0663  085E               	movf	setMain_Exception@command,w
  4619  0664  1903               	btfsc	3,2
  4620  0665  0008               	return
  4621                           
  4622                           ;Main_B1.c: 292: setLights_Trigger(1, 0);
  4623  0666  01F6               	clrf	setLights_Trigger@command
  4624  0667  3001               	movlw	1
  4625  0668  118A  27B7         	fcall	_setLights_Trigger
  4626  066A  1283               	bcf	3,5	;RP0=0, select bank0
  4627  066B  1303               	bcf	3,6	;RP1=0, select bank0
  4628  066C  0008               	return
  4629  066D                     __end_of_setMain_Exception:	
  4630                           
  4631                           	psect	text19
  4632  07B7                     __ptext19:	
  4633 ;; *************** function _setLights_Trigger *****************
  4634 ;; Defined at:
  4635 ;;		line 214 in file "../src/TriacRelay_B1.c"
  4636 ;; Parameters:    Size  Location     Type
  4637 ;;  lights          1    wreg     unsigned char 
  4638 ;;  command         1    6[COMMON] unsigned char 
  4639 ;; Auto vars:     Size  Location     Type
  4640 ;;  lights          1    1[BANK0 ] unsigned char 
  4641 ;; Return value:  Size  Location     Type
  4642 ;;		None               void
  4643 ;; Registers used:
  4644 ;;		wreg, fsr0l, fsr0h, status,2, status,0, pclath, cstack
  4645 ;; Tracked objects:
  4646 ;;		On entry : 0/0
  4647 ;;		On exit  : 0/0
  4648 ;;		Unchanged: 0/0
  4649 ;; Data sizes:     COMMON   BANK0   BANK1   BANK2
  4650 ;;      Params:         1       0       0       0
  4651 ;;      Locals:         0       1       0       0
  4652 ;;      Temps:          0       1       0       0
  4653 ;;      Totals:         1       2       0       0
  4654 ;;Total ram usage:        3 bytes
  4655 ;; Hardware stack levels used:    1
  4656 ;; Hardware stack levels required when called:    3
  4657 ;; This function calls:
  4658 ;;		_LightsPointSelect
  4659 ;; This function is called by:
  4660 ;;		_setMain_Exception
  4661 ;;		_PIR_Main
  4662 ;; This function uses a non-reentrant model
  4663 ;;
  4664                           
  4665                           
  4666                           ;psect for function _setLights_Trigger
  4667  07B7                     _setLights_Trigger:	
  4668                           
  4669                           ;incstack = 0
  4670                           ; Regs used in _setLights_Trigger: [wreg-fsr0h+status,2+status,0+pclath+cstack]
  4671                           ;setLights_Trigger@lights stored from wreg
  4672  07B7  1283               	bcf	3,5	;RP0=0, select bank0
  4673  07B8  1303               	bcf	3,6	;RP1=0, select bank0
  4674  07B9  00D7               	movwf	setLights_Trigger@lights
  4675                           
  4676                           ;TriacRelay_B1.c: 215: LightsPointSelect(lights);
  4677  07BA  0857               	movf	setLights_Trigger@lights,w
  4678  07BB  158A  2707         	fcall	_LightsPointSelect
  4679                           
  4680                           ;TriacRelay_B1.c: 216: Lights->Trigger = 1;
  4681  07BD  0878               	movf	_Lights,w
  4682  07BE  0084               	movwf	4
  4683  07BF  1383               	bcf	3,7	;select IRP bank0
  4684  07C0  1580               	bsf	0,3
  4685                           
  4686                           ;TriacRelay_B1.c: 217: Lights->Switch = command == 1 ? 1 : 0;
  4687  07C1  0876               	movf	setLights_Trigger@command,w
  4688  07C2  3A01               	xorlw	1
  4689  07C3  3000               	movlw	0
  4690  07C4  1903               	skipnz
  4691  07C5  3001               	movlw	1
  4692  07C6  1283               	bcf	3,5	;RP0=0, select bank0
  4693  07C7  1303               	bcf	3,6	;RP1=0, select bank0
  4694  07C8  00D6               	movwf	??_setLights_Trigger
  4695  07C9  0878               	movf	_Lights,w
  4696  07CA  0084               	movwf	4
  4697  07CB  0ED6               	swapf	??_setLights_Trigger,f
  4698  07CC  0800               	movf	0,w
  4699  07CD  0656               	xorwf	??_setLights_Trigger,w
  4700  07CE  39EF               	andlw	-17
  4701  07CF  0656               	xorwf	??_setLights_Trigger,w
  4702  07D0  0080               	movwf	0
  4703  07D1  0008               	return
  4704  07D2                     __end_of_setLights_Trigger:	
  4705                           
  4706                           	psect	text20
  4707  0F34                     __ptext20:	
  4708 ;; *************** function _getAll_Lights_Line *****************
  4709 ;; Defined at:
  4710 ;;		line 236 in file "../src/TriacRelay_B1.c"
  4711 ;; Parameters:    Size  Location     Type
  4712 ;;		None
  4713 ;; Auto vars:     Size  Location     Type
  4714 ;;  line            1    6[COMMON] unsigned char 
  4715 ;; Return value:  Size  Location     Type
  4716 ;;                  1    wreg      unsigned char 
  4717 ;; Registers used:
  4718 ;;		wreg, fsr0l, fsr0h, status,2, status,0, pclath, cstack
  4719 ;; Tracked objects:
  4720 ;;		On entry : 0/0
  4721 ;;		On exit  : 0/0
  4722 ;;		Unchanged: 0/0
  4723 ;; Data sizes:     COMMON   BANK0   BANK1   BANK2
  4724 ;;      Params:         0       0       0       0
  4725 ;;      Locals:         1       0       0       0
  4726 ;;      Temps:          0       0       0       0
  4727 ;;      Totals:         1       0       0       0
  4728 ;;Total ram usage:        1 bytes
  4729 ;; Hardware stack levels used:    1
  4730 ;; Hardware stack levels required when called:    3
  4731 ;; This function calls:
  4732 ;;		_LightsPointSelect
  4733 ;; This function is called by:
  4734 ;;		_setMain_Exception
  4735 ;; This function uses a non-reentrant model
  4736 ;;
  4737                           
  4738                           
  4739                           ;psect for function _getAll_Lights_Line
  4740  0F34                     _getAll_Lights_Line:	
  4741                           
  4742                           ;TriacRelay_B1.c: 237: char line = 0;
  4743                           
  4744                           ;incstack = 0
  4745                           ; Regs used in _getAll_Lights_Line: [wreg-fsr0h+status,2+status,0+pclath+cstack]
  4746  0F34  01F6               	clrf	getAll_Lights_Line@line
  4747                           
  4748                           ;TriacRelay_B1.c: 239: LightsPointSelect(1);
  4749  0F35  3001               	movlw	1
  4750  0F36  158A  2707         	fcall	_LightsPointSelect
  4751                           
  4752                           ;TriacRelay_B1.c: 240: line = Lights->Line == 1 ? 1 : 0;
  4753  0F38  0A78               	incf	_Lights,w
  4754  0F39  0084               	movwf	4
  4755  0F3A  3000               	movlw	0
  4756  0F3B  1383               	bcf	3,7	;select IRP bank0
  4757  0F3C  1800               	btfsc	0,0
  4758  0F3D  3001               	movlw	1
  4759  0F3E  00F6               	movwf	getAll_Lights_Line@line
  4760                           
  4761                           ;TriacRelay_B1.c: 250: return line;
  4762  0F3F  0876               	movf	getAll_Lights_Line@line,w
  4763  0F40  0008               	return
  4764  0F41                     __end_of_getAll_Lights_Line:	
  4765                           
  4766                           	psect	text21
  4767  066D                     __ptext21:	
  4768 ;; *************** function _getMain_All_Error_Status *****************
  4769 ;; Defined at:
  4770 ;;		line 365 in file "../src/Main_B1.c"
  4771 ;; Parameters:    Size  Location     Type
  4772 ;;  command         1    wreg     unsigned char 
  4773 ;; Auto vars:     Size  Location     Type
  4774 ;;  command         1    4[BANK0 ] unsigned char 
  4775 ;;  status          1    5[BANK0 ] unsigned char 
  4776 ;; Return value:  Size  Location     Type
  4777 ;;                  1    wreg      unsigned char 
  4778 ;; Registers used:
  4779 ;;		wreg, status,2, status,0, pclath, cstack
  4780 ;; Tracked objects:
  4781 ;;		On entry : 0/0
  4782 ;;		On exit  : 0/0
  4783 ;;		Unchanged: 0/0
  4784 ;; Data sizes:     COMMON   BANK0   BANK1   BANK2
  4785 ;;      Params:         0       0       0       0
  4786 ;;      Locals:         0       6       0       0
  4787 ;;      Temps:          1       0       0       0
  4788 ;;      Totals:         1       6       0       0
  4789 ;;Total ram usage:        7 bytes
  4790 ;; Hardware stack levels used:    1
  4791 ;; Hardware stack levels required when called:    3
  4792 ;; This function calls:
  4793 ;;		_getCDS_Status
  4794 ;; This function is called by:
  4795 ;;		_setTemp_Main
  4796 ;;		_PIR_Main
  4797 ;; This function uses a non-reentrant model
  4798 ;;
  4799                           
  4800                           
  4801                           ;psect for function _getMain_All_Error_Status
  4802  066D                     _getMain_All_Error_Status:	
  4803                           
  4804                           ;incstack = 0
  4805                           ; Regs used in _getMain_All_Error_Status: [wreg+status,2+status,0+pclath+cstack]
  4806                           ;getMain_All_Error_Status@command stored from wreg
  4807  066D  1283               	bcf	3,5	;RP0=0, select bank0
  4808  066E  1303               	bcf	3,6	;RP1=0, select bank0
  4809  066F  00DA               	movwf	getMain_All_Error_Status@command
  4810                           
  4811                           ;Main_B1.c: 366: char status = 0;
  4812  0670  01DB               	clrf	getMain_All_Error_Status@status
  4813                           
  4814                           ;Main_B1.c: 377: if (status == 0 && command != 2) {
  4815  0671  08DB               	movf	getMain_All_Error_Status@status,f
  4816  0672  1D03               	skipz
  4817  0673  2E85               	goto	l2511
  4818  0674  085A               	movf	getMain_All_Error_Status@command,w
  4819  0675  3A02               	xorlw	2
  4820  0676  1903               	skipnz
  4821  0677  2E85               	goto	l2511
  4822                           
  4823                           ;Main_B1.c: 378: status = Temp.ERROR == 1 ? 2 : 0;
  4824  0678  18B7               	btfsc	_Temp,1
  4825  0679  2E7D               	goto	l2509
  4826  067A  01D6               	clrf	_getMain_All_Error_Status$2063
  4827  067B  01D7               	clrf	_getMain_All_Error_Status$2063+1
  4828  067C  2E81               	goto	l553
  4829  067D                     l2509:	
  4830  067D  3002               	movlw	2
  4831  067E  00D6               	movwf	_getMain_All_Error_Status$2063
  4832  067F  3000               	movlw	0
  4833  0680  00D7               	movwf	_getMain_All_Error_Status$2063+1
  4834  0681                     l553:	
  4835  0681  0856               	movf	_getMain_All_Error_Status$2063,w
  4836  0682  00F5               	movwf	??_getMain_All_Error_Status
  4837  0683  0875               	movf	??_getMain_All_Error_Status,w
  4838  0684  00DB               	movwf	getMain_All_Error_Status@status
  4839  0685                     l2511:	
  4840                           
  4841                           ;Main_B1.c: 379: }
  4842                           ;Main_B1.c: 398: if (status == 0 && command != 5) {
  4843  0685  08DB               	movf	getMain_All_Error_Status@status,f
  4844  0686  1D03               	skipz
  4845  0687  2EA1               	goto	l554
  4846  0688  085A               	movf	getMain_All_Error_Status@command,w
  4847  0689  3A05               	xorlw	5
  4848  068A  1903               	skipnz
  4849  068B  2EA1               	goto	l554
  4850                           
  4851                           ;Main_B1.c: 399: status = getCDS_Status() == 0 ? 5 : 0;
  4852  068C  158A  26F7  118A   	fcall	_getCDS_Status
  4853  068F  3A00               	xorlw	0
  4854  0690  1903               	skipnz
  4855  0691  2E97               	goto	l2519
  4856  0692  1283               	bcf	3,5	;RP0=0, select bank0
  4857  0693  1303               	bcf	3,6	;RP1=0, select bank0
  4858  0694  01D8               	clrf	_getMain_All_Error_Status$2065
  4859  0695  01D9               	clrf	_getMain_All_Error_Status$2065+1
  4860  0696  2E9D               	goto	l558
  4861  0697                     l2519:	
  4862  0697  3005               	movlw	5
  4863  0698  1283               	bcf	3,5	;RP0=0, select bank0
  4864  0699  1303               	bcf	3,6	;RP1=0, select bank0
  4865  069A  00D8               	movwf	_getMain_All_Error_Status$2065
  4866  069B  3000               	movlw	0
  4867  069C  00D9               	movwf	_getMain_All_Error_Status$2065+1
  4868  069D                     l558:	
  4869  069D  0858               	movf	_getMain_All_Error_Status$2065,w
  4870  069E  00F5               	movwf	??_getMain_All_Error_Status
  4871  069F  0875               	movf	??_getMain_All_Error_Status,w
  4872  06A0  00DB               	movwf	getMain_All_Error_Status@status
  4873  06A1                     l554:	
  4874                           
  4875                           ;Main_B1.c: 400: }
  4876                           ;Main_B1.c: 402: return status;
  4877  06A1  085B               	movf	getMain_All_Error_Status@status,w
  4878  06A2  0008               	return
  4879  06A3                     __end_of_getMain_All_Error_Status:	
  4880                           
  4881                           	psect	text22
  4882  0EF7                     __ptext22:	
  4883 ;; *************** function _getCDS_Status *****************
  4884 ;; Defined at:
  4885 ;;		line 40 in file "../src/CDS_B1.c"
  4886 ;; Parameters:    Size  Location     Type
  4887 ;;		None
  4888 ;; Auto vars:     Size  Location     Type
  4889 ;;  status          1    4[COMMON] unsigned char 
  4890 ;; Return value:  Size  Location     Type
  4891 ;;                  1    wreg      unsigned char 
  4892 ;; Registers used:
  4893 ;;		wreg, status,2
  4894 ;; Tracked objects:
  4895 ;;		On entry : 0/0
  4896 ;;		On exit  : 0/0
  4897 ;;		Unchanged: 0/0
  4898 ;; Data sizes:     COMMON   BANK0   BANK1   BANK2
  4899 ;;      Params:         0       0       0       0
  4900 ;;      Locals:         1       0       0       0
  4901 ;;      Temps:          0       0       0       0
  4902 ;;      Totals:         1       0       0       0
  4903 ;;Total ram usage:        1 bytes
  4904 ;; Hardware stack levels used:    1
  4905 ;; Hardware stack levels required when called:    2
  4906 ;; This function calls:
  4907 ;;		Nothing
  4908 ;; This function is called by:
  4909 ;;		_getMain_All_Error_Status
  4910 ;; This function uses a non-reentrant model
  4911 ;;
  4912                           
  4913                           
  4914                           ;psect for function _getCDS_Status
  4915  0EF7                     _getCDS_Status:	
  4916                           
  4917                           ;CDS_B1.c: 41: char status = _CDS.Status == 1 ? 1 : 0;
  4918                           
  4919                           ;incstack = 0
  4920                           ; Regs used in _getCDS_Status: [wreg+status,2]
  4921  0EF7  3000               	movlw	0
  4922  0EF8  1283               	bcf	3,5	;RP0=0, select bank0
  4923  0EF9  1303               	bcf	3,6	;RP1=0, select bank0
  4924  0EFA  1A28               	btfsc	__CDS,4
  4925  0EFB  3001               	movlw	1
  4926  0EFC  00F4               	movwf	getCDS_Status@status
  4927                           
  4928                           ;CDS_B1.c: 42: return status;
  4929  0EFD  0874               	movf	getCDS_Status@status,w
  4930  0EFE  0008               	return
  4931  0EFF                     __end_of_getCDS_Status:	
  4932                           
  4933                           	psect	text23
  4934  0FB0                     __ptext23:	
  4935 ;; *************** function _PIR_Initialization *****************
  4936 ;; Defined at:
  4937 ;;		line 7 in file "../src/PIR_B1.c"
  4938 ;; Parameters:    Size  Location     Type
  4939 ;;		None
  4940 ;; Auto vars:     Size  Location     Type
  4941 ;;		None
  4942 ;; Return value:  Size  Location     Type
  4943 ;;		None               void
  4944 ;; Registers used:
  4945 ;;		wreg, fsr0l, fsr0h, status,2, status,0, pclath, cstack
  4946 ;; Tracked objects:
  4947 ;;		On entry : 0/0
  4948 ;;		On exit  : 0/0
  4949 ;;		Unchanged: 0/0
  4950 ;; Data sizes:     COMMON   BANK0   BANK1   BANK2
  4951 ;;      Params:         0       0       0       0
  4952 ;;      Locals:         0       0       0       0
  4953 ;;      Temps:          0       1       0       0
  4954 ;;      Totals:         0       1       0       0
  4955 ;;Total ram usage:        1 bytes
  4956 ;; Hardware stack levels used:    1
  4957 ;; Hardware stack levels required when called:    4
  4958 ;; This function calls:
  4959 ;;		_setLED
  4960 ;; This function is called by:
  4961 ;;		_main
  4962 ;; This function uses a non-reentrant model
  4963 ;;
  4964                           
  4965                           
  4966                           ;psect for function _PIR_Initialization
  4967  0FB0                     _PIR_Initialization:	
  4968                           
  4969                           ;PIR_B1.c: 8: setLED(1, 1);
  4970                           
  4971                           ;incstack = 0
  4972                           ; Regs used in _PIR_Initialization: [wreg-fsr0h+status,2+status,0+pclath+cstack]
  4973  0FB0  01F6               	clrf	setLED@command
  4974  0FB1  0AF6               	incf	setLED@command,f
  4975  0FB2  3001               	movlw	1
  4976  0FB3  118A  23B2         	fcall	_setLED
  4977                           
  4978                           ;PIR_B1.c: 9: _PIR.RangeValue = 15;
  4979  0FB5  300F               	movlw	15
  4980  0FB6  1283               	bcf	3,5	;RP0=0, select bank0
  4981  0FB7  1303               	bcf	3,6	;RP1=0, select bank0
  4982  0FB8  00D7               	movwf	??_PIR_Initialization
  4983  0FB9  0857               	movf	??_PIR_Initialization,w
  4984  0FBA  1683               	bsf	3,5	;RP0=1, select bank1
  4985  0FBB  1303               	bcf	3,6	;RP1=0, select bank1
  4986  0FBC  00CC               	movwf	(__PIR^(0+128)+44)
  4987                           
  4988                           ;PIR_B1.c: 10: _PIR.CloseTimeValue = 5;
  4989  0FBD  3005               	movlw	5
  4990  0FBE  00C7               	movwf	(__PIR^(0+128)+39)
  4991  0FBF  3000               	movlw	0
  4992  0FC0  00C8               	movwf	(__PIR^(0+128)+40)
  4993  0FC1  0008               	return
  4994  0FC2                     __end_of_PIR_Initialization:	
  4995                           
  4996                           	psect	text24
  4997  0F5D                     __ptext24:	
  4998 ;; *************** function _Mcu_Initialization *****************
  4999 ;; Defined at:
  5000 ;;		line 30 in file "../src/MCU_B1.c"
  5001 ;; Parameters:    Size  Location     Type
  5002 ;;		None
  5003 ;; Auto vars:     Size  Location     Type
  5004 ;;		None
  5005 ;; Return value:  Size  Location     Type
  5006 ;;		None               void
  5007 ;; Registers used:
  5008 ;;		wreg, status,2, status,0, pclath, cstack
  5009 ;; Tracked objects:
  5010 ;;		On entry : 0/0
  5011 ;;		On exit  : 0/0
  5012 ;;		Unchanged: 0/0
  5013 ;; Data sizes:     COMMON   BANK0   BANK1   BANK2
  5014 ;;      Params:         0       0       0       0
  5015 ;;      Locals:         0       0       0       0
  5016 ;;      Temps:          0       0       0       0
  5017 ;;      Totals:         0       0       0       0
  5018 ;;Total ram usage:        0 bytes
  5019 ;; Hardware stack levels used:    1
  5020 ;; Hardware stack levels required when called:    3
  5021 ;; This function calls:
  5022 ;;		_ADC_Set
  5023 ;;		_Fosc_Set
  5024 ;;		_IO_Set
  5025 ;;		_TMR1_Set
  5026 ;;		_WDT_Set
  5027 ;; This function is called by:
  5028 ;;		_main
  5029 ;; This function uses a non-reentrant model
  5030 ;;
  5031                           
  5032                           
  5033                           ;psect for function _Mcu_Initialization
  5034  0F5D                     _Mcu_Initialization:	
  5035                           
  5036                           ;MCU_B1.c: 32: Fosc_Set();
  5037                           
  5038                           ;incstack = 0
  5039                           ; Regs used in _Mcu_Initialization: [wreg+status,2+status,0+pclath+cstack]
  5040  0F5D  158A  26E5  158A   	fcall	_Fosc_Set
  5041                           
  5042                           ;MCU_B1.c: 34: IO_Set();
  5043  0F60  158A  27EB  158A   	fcall	_IO_Set
  5044                           
  5045                           ;MCU_B1.c: 36: ;;
  5046                           ;MCU_B1.c: 38: TMR1_Set();
  5047  0F63  158A  2741  158A   	fcall	_TMR1_Set
  5048                           
  5049                           ;MCU_B1.c: 40: ADC_Set();
  5050  0F66  158A  26F0  158A   	fcall	_ADC_Set
  5051                           
  5052                           ;MCU_B1.c: 42: ;;
  5053                           ;MCU_B1.c: 44: ;;
  5054                           ;MCU_B1.c: 46: ;;
  5055                           ;MCU_B1.c: 48: ;;
  5056                           ;MCU_B1.c: 50: ;;
  5057                           ;MCU_B1.c: 52: WDT_Set();
  5058  0F69  158A  274F         	fcall	_WDT_Set
  5059  0F6B  0008               	return
  5060  0F6C                     __end_of_Mcu_Initialization:	
  5061                           
  5062                           	psect	text25
  5063  0F4F                     __ptext25:	
  5064 ;; *************** function _WDT_Set *****************
  5065 ;; Defined at:
  5066 ;;		line 1019 in file "../src/MCU_B1.c"
  5067 ;; Parameters:    Size  Location     Type
  5068 ;;		None
  5069 ;; Auto vars:     Size  Location     Type
  5070 ;;		None
  5071 ;; Return value:  Size  Location     Type
  5072 ;;		None               void
  5073 ;; Registers used:
  5074 ;;		wreg
  5075 ;; Tracked objects:
  5076 ;;		On entry : 0/0
  5077 ;;		On exit  : 0/0
  5078 ;;		Unchanged: 0/0
  5079 ;; Data sizes:     COMMON   BANK0   BANK1   BANK2
  5080 ;;      Params:         0       0       0       0
  5081 ;;      Locals:         0       0       0       0
  5082 ;;      Temps:          1       0       0       0
  5083 ;;      Totals:         1       0       0       0
  5084 ;;Total ram usage:        1 bytes
  5085 ;; Hardware stack levels used:    1
  5086 ;; Hardware stack levels required when called:    2
  5087 ;; This function calls:
  5088 ;;		Nothing
  5089 ;; This function is called by:
  5090 ;;		_Mcu_Initialization
  5091 ;; This function uses a non-reentrant model
  5092 ;;
  5093                           
  5094                           
  5095                           ;psect for function _WDT_Set
  5096  0F4F                     _WDT_Set:	
  5097                           
  5098                           ;MCU_B1.c: 1021: PSA = 1;
  5099                           
  5100                           ;incstack = 0
  5101                           ; Regs used in _WDT_Set: [wreg]
  5102  0F4F  1683               	bsf	3,5	;RP0=1, select bank1
  5103  0F50  1303               	bcf	3,6	;RP1=0, select bank1
  5104  0F51  1581               	bsf	1,3	;volatile
  5105                           
  5106                           ;MCU_B1.c: 1022: PS0 = 1;
  5107  0F52  1401               	bsf	1,0	;volatile
  5108                           
  5109                           ;MCU_B1.c: 1023: PS1 = 1;
  5110  0F53  1481               	bsf	1,1	;volatile
  5111                           
  5112                           ;MCU_B1.c: 1024: PS2 = 1;
  5113  0F54  1501               	bsf	1,2	;volatile
  5114                           
  5115                           ;MCU_B1.c: 1028: WDT.Enable = 1;
  5116  0F55  1283               	bcf	3,5	;RP0=0, select bank0
  5117  0F56  1303               	bcf	3,6	;RP1=0, select bank0
  5118  0F57  1434               	bsf	_WDT,0
  5119                           
  5120                           ;MCU_B1.c: 1029: WDT.Timer = 10;
  5121  0F58  300A               	movlw	10
  5122  0F59  00F4               	movwf	??_WDT_Set
  5123  0F5A  0874               	movf	??_WDT_Set,w
  5124  0F5B  00B5               	movwf	_WDT+1
  5125  0F5C  0008               	return
  5126  0F5D                     __end_of_WDT_Set:	
  5127                           
  5128                           	psect	text26
  5129  0F41                     __ptext26:	
  5130 ;; *************** function _TMR1_Set *****************
  5131 ;; Defined at:
  5132 ;;		line 199 in file "../src/MCU_B1.c"
  5133 ;; Parameters:    Size  Location     Type
  5134 ;;		None
  5135 ;; Auto vars:     Size  Location     Type
  5136 ;;		None
  5137 ;; Return value:  Size  Location     Type
  5138 ;;		None               void
  5139 ;; Registers used:
  5140 ;;		wreg
  5141 ;; Tracked objects:
  5142 ;;		On entry : 0/0
  5143 ;;		On exit  : 0/0
  5144 ;;		Unchanged: 0/0
  5145 ;; Data sizes:     COMMON   BANK0   BANK1   BANK2
  5146 ;;      Params:         0       0       0       0
  5147 ;;      Locals:         0       0       0       0
  5148 ;;      Temps:          0       0       0       0
  5149 ;;      Totals:         0       0       0       0
  5150 ;;Total ram usage:        0 bytes
  5151 ;; Hardware stack levels used:    1
  5152 ;; Hardware stack levels required when called:    2
  5153 ;; This function calls:
  5154 ;;		Nothing
  5155 ;; This function is called by:
  5156 ;;		_Mcu_Initialization
  5157 ;; This function uses a non-reentrant model
  5158 ;;
  5159                           
  5160                           
  5161                           ;psect for function _TMR1_Set
  5162  0F41                     _TMR1_Set:	
  5163                           
  5164                           ;MCU_B1.c: 200: T1CON = (0x40 | 0x00 | 0x01);
  5165                           
  5166                           ;incstack = 0
  5167                           ; Regs used in _TMR1_Set: [wreg]
  5168  0F41  3041               	movlw	65
  5169  0F42  1283               	bcf	3,5	;RP0=0, select bank0
  5170  0F43  1303               	bcf	3,6	;RP1=0, select bank0
  5171  0F44  0090               	movwf	16	;volatile
  5172                           
  5173                           ;MCU_B1.c: 201: TMR1H = ((65536-1480)/256);
  5174  0F45  30FA               	movlw	250
  5175  0F46  008F               	movwf	15	;volatile
  5176                           
  5177                           ;MCU_B1.c: 202: TMR1L = ((65536-1480)%256);
  5178  0F47  3038               	movlw	56
  5179  0F48  008E               	movwf	14	;volatile
  5180                           
  5181                           ;MCU_B1.c: 203: TMR1IE = 1;
  5182  0F49  1683               	bsf	3,5	;RP0=1, select bank1
  5183  0F4A  1303               	bcf	3,6	;RP1=0, select bank1
  5184  0F4B  140C               	bsf	12,0	;volatile
  5185                           
  5186                           ;MCU_B1.c: 204: PEIE = 1;
  5187  0F4C  170B               	bsf	11,6	;volatile
  5188                           
  5189                           ;MCU_B1.c: 205: GIE = 1;
  5190  0F4D  178B               	bsf	11,7	;volatile
  5191  0F4E  0008               	return
  5192  0F4F                     __end_of_TMR1_Set:	
  5193                           
  5194                           	psect	text27
  5195  0FEB                     __ptext27:	
  5196 ;; *************** function _IO_Set *****************
  5197 ;; Defined at:
  5198 ;;		line 60 in file "../src/MCU_B1.c"
  5199 ;; Parameters:    Size  Location     Type
  5200 ;;		None
  5201 ;; Auto vars:     Size  Location     Type
  5202 ;;		None
  5203 ;; Return value:  Size  Location     Type
  5204 ;;		None               void
  5205 ;; Registers used:
  5206 ;;		wreg, status,2
  5207 ;; Tracked objects:
  5208 ;;		On entry : 0/0
  5209 ;;		On exit  : 0/0
  5210 ;;		Unchanged: 0/0
  5211 ;; Data sizes:     COMMON   BANK0   BANK1   BANK2
  5212 ;;      Params:         0       0       0       0
  5213 ;;      Locals:         0       0       0       0
  5214 ;;      Temps:          0       0       0       0
  5215 ;;      Totals:         0       0       0       0
  5216 ;;Total ram usage:        0 bytes
  5217 ;; Hardware stack levels used:    1
  5218 ;; Hardware stack levels required when called:    2
  5219 ;; This function calls:
  5220 ;;		Nothing
  5221 ;; This function is called by:
  5222 ;;		_Mcu_Initialization
  5223 ;; This function uses a non-reentrant model
  5224 ;;
  5225                           
  5226                           
  5227                           ;psect for function _IO_Set
  5228  0FEB                     _IO_Set:	
  5229                           
  5230                           ;MCU_B1.c: 62: TRISA = 0b00101111;;
  5231                           
  5232                           ;incstack = 0
  5233                           ; Regs used in _IO_Set: [wreg+status,2]
  5234  0FEB  302F               	movlw	47
  5235  0FEC  1683               	bsf	3,5	;RP0=1, select bank1
  5236  0FED  1303               	bcf	3,6	;RP1=0, select bank1
  5237  0FEE  0085               	movwf	5	;volatile
  5238                           
  5239                           ;MCU_B1.c: 63: TRISB = 0b00000001;;
  5240  0FEF  3001               	movlw	1
  5241  0FF0  0086               	movwf	6	;volatile
  5242                           
  5243                           ;MCU_B1.c: 64: TRISC = 0b00000000;;
  5244  0FF1  0187               	clrf	7	;volatile
  5245                           
  5246                           ;MCU_B1.c: 65: ANSELA = 0b00000111;;
  5247  0FF2  3007               	movlw	7
  5248  0FF3  1683               	bsf	3,5	;RP0=1, select bank3
  5249  0FF4  1703               	bsf	3,6	;RP1=1, select bank3
  5250  0FF5  0085               	movwf	5	;volatile
  5251                           
  5252                           ;MCU_B1.c: 66: ANSELB = 0b00000001;;
  5253  0FF6  3001               	movlw	1
  5254  0FF7  0086               	movwf	6	;volatile
  5255                           
  5256                           ;MCU_B1.c: 67: PORTA = 0b10101111;;
  5257  0FF8  30AF               	movlw	175
  5258  0FF9  1283               	bcf	3,5	;RP0=0, select bank0
  5259  0FFA  1303               	bcf	3,6	;RP1=0, select bank0
  5260  0FFB  0085               	movwf	5	;volatile
  5261                           
  5262                           ;MCU_B1.c: 68: PORTB = 0b00000001;;
  5263  0FFC  3001               	movlw	1
  5264  0FFD  0086               	movwf	6	;volatile
  5265                           
  5266                           ;MCU_B1.c: 69: PORTC = 0b00000000;;
  5267  0FFE  0187               	clrf	7	;volatile
  5268  0FFF  0008               	return
  5269  1000                     __end_of_IO_Set:	
  5270                           
  5271                           	psect	text28
  5272  0EE5                     __ptext28:	
  5273 ;; *************** function _Fosc_Set *****************
  5274 ;; Defined at:
  5275 ;;		line 56 in file "../src/MCU_B1.c"
  5276 ;; Parameters:    Size  Location     Type
  5277 ;;		None
  5278 ;; Auto vars:     Size  Location     Type
  5279 ;;		None
  5280 ;; Return value:  Size  Location     Type
  5281 ;;		None               void
  5282 ;; Registers used:
  5283 ;;		wreg
  5284 ;; Tracked objects:
  5285 ;;		On entry : 0/0
  5286 ;;		On exit  : 0/0
  5287 ;;		Unchanged: 0/0
  5288 ;; Data sizes:     COMMON   BANK0   BANK1   BANK2
  5289 ;;      Params:         0       0       0       0
  5290 ;;      Locals:         0       0       0       0
  5291 ;;      Temps:          0       0       0       0
  5292 ;;      Totals:         0       0       0       0
  5293 ;;Total ram usage:        0 bytes
  5294 ;; Hardware stack levels used:    1
  5295 ;; Hardware stack levels required when called:    2
  5296 ;; This function calls:
  5297 ;;		Nothing
  5298 ;; This function is called by:
  5299 ;;		_Mcu_Initialization
  5300 ;; This function uses a non-reentrant model
  5301 ;;
  5302                           
  5303                           
  5304                           ;psect for function _Fosc_Set
  5305  0EE5                     _Fosc_Set:	
  5306                           
  5307                           ;MCU_B1.c: 57: OSCCON = 0x3c;
  5308                           
  5309                           ;incstack = 0
  5310                           ; Regs used in _Fosc_Set: [wreg]
  5311  0EE5  303C               	movlw	60
  5312  0EE6  1683               	bsf	3,5	;RP0=1, select bank1
  5313  0EE7  1303               	bcf	3,6	;RP1=0, select bank1
  5314  0EE8  0090               	movwf	16	;volatile
  5315  0EE9  0008               	return
  5316  0EEA                     __end_of_Fosc_Set:	
  5317                           
  5318                           	psect	text29
  5319  0EF0                     __ptext29:	
  5320 ;; *************** function _ADC_Set *****************
  5321 ;; Defined at:
  5322 ;;		line 420 in file "../src/MCU_B1.c"
  5323 ;; Parameters:    Size  Location     Type
  5324 ;;		None
  5325 ;; Auto vars:     Size  Location     Type
  5326 ;;		None
  5327 ;; Return value:  Size  Location     Type
  5328 ;;		None               void
  5329 ;; Registers used:
  5330 ;;		wreg
  5331 ;; Tracked objects:
  5332 ;;		On entry : 0/0
  5333 ;;		On exit  : 0/0
  5334 ;;		Unchanged: 0/0
  5335 ;; Data sizes:     COMMON   BANK0   BANK1   BANK2
  5336 ;;      Params:         0       0       0       0
  5337 ;;      Locals:         0       0       0       0
  5338 ;;      Temps:          0       0       0       0
  5339 ;;      Totals:         0       0       0       0
  5340 ;;Total ram usage:        0 bytes
  5341 ;; Hardware stack levels used:    1
  5342 ;; Hardware stack levels required when called:    2
  5343 ;; This function calls:
  5344 ;;		Nothing
  5345 ;; This function is called by:
  5346 ;;		_Mcu_Initialization
  5347 ;; This function uses a non-reentrant model
  5348 ;;
  5349                           
  5350                           
  5351                           ;psect for function _ADC_Set
  5352  0EF0                     _ADC_Set:	
  5353                           
  5354                           ;MCU_B1.c: 421: ADCON1 = 0x73;
  5355                           
  5356                           ;incstack = 0
  5357                           ; Regs used in _ADC_Set: [wreg]
  5358  0EF0  3073               	movlw	115
  5359  0EF1  1683               	bsf	3,5	;RP0=1, select bank1
  5360  0EF2  1303               	bcf	3,6	;RP1=0, select bank1
  5361  0EF3  009F               	movwf	31	;volatile
  5362                           
  5363                           ;MCU_B1.c: 422: FVRCON = 0xc1;
  5364  0EF4  30C1               	movlw	193
  5365  0EF5  009D               	movwf	29	;volatile
  5366  0EF6  0008               	return
  5367  0EF7                     __end_of_ADC_Set:	
  5368                           
  5369                           	psect	text30
  5370  0F11                     __ptext30:	
  5371 ;; *************** function _Lights_Main *****************
  5372 ;; Defined at:
  5373 ;;		line 54 in file "../src/TriacRelay_B1.c"
  5374 ;; Parameters:    Size  Location     Type
  5375 ;;		None
  5376 ;; Auto vars:     Size  Location     Type
  5377 ;;		None
  5378 ;; Return value:  Size  Location     Type
  5379 ;;		None               void
  5380 ;; Registers used:
  5381 ;;		wreg, fsr0l, fsr0h, status,2, status,0, pclath, cstack
  5382 ;; Tracked objects:
  5383 ;;		On entry : 0/0
  5384 ;;		On exit  : 0/0
  5385 ;;		Unchanged: 0/0
  5386 ;; Data sizes:     COMMON   BANK0   BANK1   BANK2
  5387 ;;      Params:         0       0       0       0
  5388 ;;      Locals:         0       0       0       0
  5389 ;;      Temps:          0       0       0       0
  5390 ;;      Totals:         0       0       0       0
  5391 ;;Total ram usage:        0 bytes
  5392 ;; Hardware stack levels used:    1
  5393 ;; Hardware stack levels required when called:    6
  5394 ;; This function calls:
  5395 ;;		_Lights_Close
  5396 ;;		_Lights_Control
  5397 ;;		_setLights_Main
  5398 ;; This function is called by:
  5399 ;;		_main
  5400 ;; This function uses a non-reentrant model
  5401 ;;
  5402                           
  5403                           
  5404                           ;psect for function _Lights_Main
  5405  0F11                     _Lights_Main:	
  5406                           
  5407                           ;TriacRelay_B1.c: 67: setLights_Main(1);
  5408                           
  5409                           ;incstack = 0
  5410                           ; Regs used in _Lights_Main: [wreg-fsr0h+status,2+status,0+pclath+cstack]
  5411  0F11  3001               	movlw	1
  5412  0F12  118A  2732  158A   	fcall	_setLights_Main
  5413                           
  5414                           ;TriacRelay_B1.c: 68: Lights_Control(1);
  5415  0F15  3001               	movlw	1
  5416  0F16  118A  24F5  158A   	fcall	_Lights_Control
  5417                           
  5418                           ;TriacRelay_B1.c: 81: Lights_Close();
  5419  0F19  158A  27D6         	fcall	_Lights_Close
  5420  0F1B  0008               	return
  5421  0F1C                     __end_of_Lights_Main:	
  5422                           
  5423                           	psect	text31
  5424  0732                     __ptext31:	
  5425 ;; *************** function _setLights_Main *****************
  5426 ;; Defined at:
  5427 ;;		line 93 in file "../src/TriacRelay_B1.c"
  5428 ;; Parameters:    Size  Location     Type
  5429 ;;  lights          1    wreg     unsigned char 
  5430 ;; Auto vars:     Size  Location     Type
  5431 ;;  lights          1    3[BANK0 ] unsigned char 
  5432 ;; Return value:  Size  Location     Type
  5433 ;;		None               void
  5434 ;; Registers used:
  5435 ;;		wreg, fsr0l, fsr0h, status,2, status,0, pclath, cstack
  5436 ;; Tracked objects:
  5437 ;;		On entry : 0/0
  5438 ;;		On exit  : 0/0
  5439 ;;		Unchanged: 0/0
  5440 ;; Data sizes:     COMMON   BANK0   BANK1   BANK2
  5441 ;;      Params:         0       0       0       0
  5442 ;;      Locals:         0       1       0       0
  5443 ;;      Temps:          0       0       0       0
  5444 ;;      Totals:         0       1       0       0
  5445 ;;Total ram usage:        1 bytes
  5446 ;; Hardware stack levels used:    1
  5447 ;; Hardware stack levels required when called:    5
  5448 ;; This function calls:
  5449 ;;		_LightsPointSelect
  5450 ;;		_setLights
  5451 ;; This function is called by:
  5452 ;;		_Lights_Main
  5453 ;; This function uses a non-reentrant model
  5454 ;;
  5455                           
  5456                           
  5457                           ;psect for function _setLights_Main
  5458  0732                     _setLights_Main:	
  5459                           
  5460                           ;incstack = 0
  5461                           ; Regs used in _setLights_Main: [wreg-fsr0h+status,2+status,0+pclath+cstack]
  5462                           ;setLights_Main@lights stored from wreg
  5463  0732  1283               	bcf	3,5	;RP0=0, select bank0
  5464  0733  1303               	bcf	3,6	;RP1=0, select bank0
  5465  0734  00D9               	movwf	setLights_Main@lights
  5466                           
  5467                           ;TriacRelay_B1.c: 94: LightsPointSelect(lights);
  5468  0735  0859               	movf	setLights_Main@lights,w
  5469  0736  158A  2707  118A   	fcall	_LightsPointSelect
  5470                           
  5471                           ;TriacRelay_B1.c: 95: if (Lights->GO == 0) {
  5472  0739  0878               	movf	_Lights,w
  5473  073A  0084               	movwf	4
  5474  073B  1383               	bcf	3,7	;select IRP bank0
  5475  073C  1880               	btfsc	0,1
  5476  073D  0008               	return
  5477                           
  5478                           ;TriacRelay_B1.c: 96: if (Lights->Trigger == 1) {
  5479  073E  0878               	movf	_Lights,w
  5480  073F  0084               	movwf	4
  5481  0740  1D80               	btfss	0,3
  5482  0741  0008               	return
  5483                           
  5484                           ;TriacRelay_B1.c: 97: if (LightsControl.LoadOK == 0) {
  5485  0742  1283               	bcf	3,5	;RP0=0, select bank0
  5486  0743  1303               	bcf	3,6	;RP1=0, select bank0
  5487  0744  1936               	btfsc	_LightsControl,2
  5488  0745  0008               	return
  5489                           
  5490                           ;TriacRelay_B1.c: 98: Lights->Trigger = 0;
  5491  0746  0878               	movf	_Lights,w
  5492  0747  0084               	movwf	4
  5493  0748  1180               	bcf	0,3
  5494                           
  5495                           ;TriacRelay_B1.c: 100: if (Lights->Switch == 1) {
  5496  0749  0878               	movf	_Lights,w
  5497  074A  0084               	movwf	4
  5498  074B  1E00               	btfss	0,4
  5499  074C  2F53               	goto	l3595
  5500                           
  5501                           ;TriacRelay_B1.c: 101: setLights(lights, 1);
  5502  074D  01D6               	clrf	setLights@status
  5503  074E  0AD6               	incf	setLights@status,f
  5504  074F  0859               	movf	setLights_Main@lights,w
  5505  0750  118A  259D         	fcall	_setLights
  5506                           
  5507                           ;TriacRelay_B1.c: 102: } else {
  5508  0752  0008               	return
  5509  0753                     l3595:	
  5510                           
  5511                           ;TriacRelay_B1.c: 103: setLights(lights, 0);
  5512  0753  1283               	bcf	3,5	;RP0=0, select bank0
  5513  0754  1303               	bcf	3,6	;RP1=0, select bank0
  5514  0755  01D6               	clrf	setLights@status
  5515  0756  0859               	movf	setLights_Main@lights,w
  5516  0757  118A  259D         	fcall	_setLights
  5517  0759  0008               	return
  5518  075A                     __end_of_setLights_Main:	
  5519                           
  5520                           	psect	text32
  5521  059D                     __ptext32:	
  5522 ;; *************** function _setLights *****************
  5523 ;; Defined at:
  5524 ;;		line 111 in file "../src/TriacRelay_B1.c"
  5525 ;; Parameters:    Size  Location     Type
  5526 ;;  lights          1    wreg     unsigned char 
  5527 ;;  status          1    0[BANK0 ] unsigned char 
  5528 ;; Auto vars:     Size  Location     Type
  5529 ;;  lights          1    2[BANK0 ] unsigned char 
  5530 ;; Return value:  Size  Location     Type
  5531 ;;		None               void
  5532 ;; Registers used:
  5533 ;;		wreg, fsr0l, fsr0h, status,2, status,0, pclath, cstack
  5534 ;; Tracked objects:
  5535 ;;		On entry : 0/0
  5536 ;;		On exit  : 0/0
  5537 ;;		Unchanged: 0/0
  5538 ;; Data sizes:     COMMON   BANK0   BANK1   BANK2
  5539 ;;      Params:         0       1       0       0
  5540 ;;      Locals:         0       1       0       0
  5541 ;;      Temps:          0       1       0       0
  5542 ;;      Totals:         0       3       0       0
  5543 ;;Total ram usage:        3 bytes
  5544 ;; Hardware stack levels used:    1
  5545 ;; Hardware stack levels required when called:    4
  5546 ;; This function calls:
  5547 ;;		_LightsPointSelect
  5548 ;;		_setLights_Line
  5549 ;; This function is called by:
  5550 ;;		_setLights_Main
  5551 ;; This function uses a non-reentrant model
  5552 ;;
  5553                           
  5554                           
  5555                           ;psect for function _setLights
  5556  059D                     _setLights:	
  5557                           
  5558                           ;incstack = 0
  5559                           ; Regs used in _setLights: [wreg-fsr0h+status,2+status,0+pclath+cstack]
  5560                           ;setLights@lights stored from wreg
  5561  059D  1283               	bcf	3,5	;RP0=0, select bank0
  5562  059E  1303               	bcf	3,6	;RP1=0, select bank0
  5563  059F  00D8               	movwf	setLights@lights
  5564                           
  5565                           ;TriacRelay_B1.c: 113: LightsPointSelect(lights);
  5566  05A0  0858               	movf	setLights@lights,w
  5567  05A1  158A  2707  118A   	fcall	_LightsPointSelect
  5568                           
  5569                           ;TriacRelay_B1.c: 120: Lights->GO = 1;
  5570  05A4  0878               	movf	_Lights,w
  5571  05A5  0084               	movwf	4
  5572  05A6  1383               	bcf	3,7	;select IRP bank0
  5573  05A7  1480               	bsf	0,1
  5574                           
  5575                           ;TriacRelay_B1.c: 121: if (status == 1) {
  5576  05A8  1283               	bcf	3,5	;RP0=0, select bank0
  5577  05A9  1303               	bcf	3,6	;RP1=0, select bank0
  5578  05AA  0856               	movf	setLights@status,w
  5579  05AB  3A01               	xorlw	1
  5580  05AC  1D03               	skipz
  5581  05AD  2DCB               	goto	l3403
  5582                           
  5583                           ;TriacRelay_B1.c: 122: if (Lights->Status == 0) {
  5584  05AE  0878               	movf	_Lights,w
  5585  05AF  0084               	movwf	4
  5586  05B0  1900               	btfsc	0,2
  5587  05B1  2DE6               	goto	l3407
  5588                           
  5589                           ;TriacRelay_B1.c: 123: Lights->Status = 1;
  5590  05B2  0878               	movf	_Lights,w
  5591  05B3  0084               	movwf	4
  5592  05B4  1500               	bsf	0,2
  5593                           
  5594                           ;TriacRelay_B1.c: 124: Lights->Loop = 1;
  5595  05B5  0A78               	incf	_Lights,w
  5596  05B6  0084               	movwf	4
  5597  05B7  1480               	bsf	0,1
  5598                           
  5599                           ;TriacRelay_B1.c: 125: Lights->RelayValue = 10;
  5600  05B8  300A               	movlw	10
  5601  05B9  00D7               	movwf	??_setLights
  5602  05BA  0878               	movf	_Lights,w
  5603  05BB  3E06               	addlw	6
  5604  05BC  0084               	movwf	4
  5605  05BD  0857               	movf	??_setLights,w
  5606  05BE  0080               	movwf	0
  5607                           
  5608                           ;TriacRelay_B1.c: 126: Lights->TriacValue = 13;
  5609  05BF  300D               	movlw	13
  5610  05C0  00D7               	movwf	??_setLights
  5611  05C1  0878               	movf	_Lights,w
  5612  05C2  3E04               	addlw	4
  5613  05C3  0084               	movwf	4
  5614  05C4  0857               	movf	??_setLights,w
  5615  05C5  0080               	movwf	0
  5616                           
  5617                           ;TriacRelay_B1.c: 127: setLights_Line(lights);
  5618  05C6  0858               	movf	setLights@lights,w
  5619  05C7  158A  2728  118A   	fcall	_setLights_Line
  5620                           
  5621                           ;TriacRelay_B1.c: 128: }
  5622                           ;TriacRelay_B1.c: 129: } else {
  5623  05CA  2DE6               	goto	l3407
  5624  05CB                     l3403:	
  5625                           
  5626                           ;TriacRelay_B1.c: 130: if (Lights->Status == 1) {
  5627  05CB  0878               	movf	_Lights,w
  5628  05CC  0084               	movwf	4
  5629  05CD  1383               	bcf	3,7	;select IRP bank0
  5630  05CE  1D00               	btfss	0,2
  5631  05CF  2DE6               	goto	l3407
  5632                           
  5633                           ;TriacRelay_B1.c: 131: Lights->Status = 0;
  5634  05D0  0878               	movf	_Lights,w
  5635  05D1  0084               	movwf	4
  5636  05D2  1100               	bcf	0,2
  5637                           
  5638                           ;TriacRelay_B1.c: 132: Lights->Loop = 0;
  5639  05D3  0A78               	incf	_Lights,w
  5640  05D4  0084               	movwf	4
  5641  05D5  1080               	bcf	0,1
  5642                           
  5643                           ;TriacRelay_B1.c: 133: Lights->RelayValue = 4;
  5644  05D6  3004               	movlw	4
  5645  05D7  1283               	bcf	3,5	;RP0=0, select bank0
  5646  05D8  1303               	bcf	3,6	;RP1=0, select bank0
  5647  05D9  00D7               	movwf	??_setLights
  5648  05DA  0878               	movf	_Lights,w
  5649  05DB  3E06               	addlw	6
  5650  05DC  0084               	movwf	4
  5651  05DD  0857               	movf	??_setLights,w
  5652  05DE  0080               	movwf	0
  5653                           
  5654                           ;TriacRelay_B1.c: 134: Lights->TriacValue = 7;
  5655  05DF  3007               	movlw	7
  5656  05E0  00D7               	movwf	??_setLights
  5657  05E1  0878               	movf	_Lights,w
  5658  05E2  3E04               	addlw	4
  5659  05E3  0084               	movwf	4
  5660  05E4  0857               	movf	??_setLights,w
  5661  05E5  0080               	movwf	0
  5662  05E6                     l3407:	
  5663                           
  5664                           ;TriacRelay_B1.c: 135: }
  5665                           ;TriacRelay_B1.c: 136: }
  5666                           ;TriacRelay_B1.c: 138: if (lights == 1) {
  5667  05E6  1283               	bcf	3,5	;RP0=0, select bank0
  5668  05E7  1303               	bcf	3,6	;RP1=0, select bank0
  5669  05E8  0858               	movf	setLights@lights,w
  5670  05E9  3A01               	xorlw	1
  5671  05EA  1D03               	skipz
  5672  05EB  0008               	return
  5673                           
  5674                           ;TriacRelay_B1.c: 139: RB2 = 1;
  5675  05EC  1506               	bsf	6,2	;volatile
  5676  05ED  0008               	return
  5677  05EE                     __end_of_setLights:	
  5678                           
  5679                           	psect	text33
  5680  0F28                     __ptext33:	
  5681 ;; *************** function _setLights_Line *****************
  5682 ;; Defined at:
  5683 ;;		line 221 in file "../src/TriacRelay_B1.c"
  5684 ;; Parameters:    Size  Location     Type
  5685 ;;  lights          1    wreg     unsigned char 
  5686 ;; Auto vars:     Size  Location     Type
  5687 ;;  lights          1    6[COMMON] unsigned char 
  5688 ;; Return value:  Size  Location     Type
  5689 ;;		None               void
  5690 ;; Registers used:
  5691 ;;		wreg, fsr0l, fsr0h, status,2, status,0, pclath, cstack
  5692 ;; Tracked objects:
  5693 ;;		On entry : 0/0
  5694 ;;		On exit  : 0/0
  5695 ;;		Unchanged: 0/0
  5696 ;; Data sizes:     COMMON   BANK0   BANK1   BANK2
  5697 ;;      Params:         0       0       0       0
  5698 ;;      Locals:         1       0       0       0
  5699 ;;      Temps:          0       0       0       0
  5700 ;;      Totals:         1       0       0       0
  5701 ;;Total ram usage:        1 bytes
  5702 ;; Hardware stack levels used:    1
  5703 ;; Hardware stack levels required when called:    3
  5704 ;; This function calls:
  5705 ;;		_LightsPointSelect
  5706 ;; This function is called by:
  5707 ;;		_setLights
  5708 ;; This function uses a non-reentrant model
  5709 ;;
  5710                           
  5711                           
  5712                           ;psect for function _setLights_Line
  5713  0F28                     _setLights_Line:	
  5714                           
  5715                           ;incstack = 0
  5716                           ; Regs used in _setLights_Line: [wreg-fsr0h+status,2+status,0+pclath+cstack]
  5717                           ;setLights_Line@lights stored from wreg
  5718  0F28  00F6               	movwf	setLights_Line@lights
  5719                           
  5720                           ;TriacRelay_B1.c: 223: Lights1.Line = 0;
  5721  0F29  1283               	bcf	3,5	;RP0=0, select bank0
  5722  0F2A  1303               	bcf	3,6	;RP1=0, select bank0
  5723  0F2B  1044               	bcf	_Lights1+1,0
  5724                           
  5725                           ;TriacRelay_B1.c: 231: LightsPointSelect(lights);
  5726  0F2C  0876               	movf	setLights_Line@lights,w
  5727  0F2D  158A  2707         	fcall	_LightsPointSelect
  5728                           
  5729                           ;TriacRelay_B1.c: 232: Lights->Line = 1;
  5730  0F2F  0A78               	incf	_Lights,w
  5731  0F30  0084               	movwf	4
  5732  0F31  1383               	bcf	3,7	;select IRP bank0
  5733  0F32  1400               	bsf	0,0
  5734  0F33  0008               	return
  5735  0F34                     __end_of_setLights_Line:	
  5736                           
  5737                           	psect	text34
  5738  04F5                     __ptext34:	
  5739 ;; *************** function _Lights_Control *****************
  5740 ;; Defined at:
  5741 ;;		line 155 in file "../src/TriacRelay_B1.c"
  5742 ;; Parameters:    Size  Location     Type
  5743 ;;  lights          1    wreg     unsigned char 
  5744 ;; Auto vars:     Size  Location     Type
  5745 ;;  lights          1    6[COMMON] unsigned char 
  5746 ;; Return value:  Size  Location     Type
  5747 ;;		None               void
  5748 ;; Registers used:
  5749 ;;		wreg, fsr0l, fsr0h, status,2, status,0, pclath, cstack
  5750 ;; Tracked objects:
  5751 ;;		On entry : 0/0
  5752 ;;		On exit  : 0/0
  5753 ;;		Unchanged: 0/0
  5754 ;; Data sizes:     COMMON   BANK0   BANK1   BANK2
  5755 ;;      Params:         0       0       0       0
  5756 ;;      Locals:         1       0       0       0
  5757 ;;      Temps:          0       2       0       0
  5758 ;;      Totals:         1       2       0       0
  5759 ;;Total ram usage:        3 bytes
  5760 ;; Hardware stack levels used:    1
  5761 ;; Hardware stack levels required when called:    3
  5762 ;; This function calls:
  5763 ;;		_LightsPointSelect
  5764 ;; This function is called by:
  5765 ;;		_Lights_Main
  5766 ;; This function uses a non-reentrant model
  5767 ;;
  5768                           
  5769                           
  5770                           ;psect for function _Lights_Control
  5771  04F5                     _Lights_Control:	
  5772                           
  5773                           ;incstack = 0
  5774                           ; Regs used in _Lights_Control: [wreg-fsr0h+status,2+status,0+pclath+cstack]
  5775                           ;Lights_Control@lights stored from wreg
  5776  04F5  00F6               	movwf	Lights_Control@lights
  5777                           
  5778                           ;TriacRelay_B1.c: 156: LightsPointSelect(lights);
  5779  04F6  0876               	movf	Lights_Control@lights,w
  5780  04F7  158A  2707  118A   	fcall	_LightsPointSelect
  5781                           
  5782                           ;TriacRelay_B1.c: 157: if (Lights->GO == 1) {
  5783  04FA  0878               	movf	_Lights,w
  5784  04FB  0084               	movwf	4
  5785  04FC  1383               	bcf	3,7	;select IRP bank0
  5786  04FD  1C80               	btfss	0,1
  5787  04FE  0008               	return
  5788                           
  5789                           ;TriacRelay_B1.c: 158: Lights->Time++;
  5790  04FF  3001               	movlw	1
  5791  0500  1283               	bcf	3,5	;RP0=0, select bank0
  5792  0501  1303               	bcf	3,6	;RP1=0, select bank0
  5793  0502  00D6               	movwf	??_Lights_Control
  5794  0503  0878               	movf	_Lights,w
  5795  0504  3E02               	addlw	2
  5796  0505  0084               	movwf	4
  5797  0506  0856               	movf	??_Lights_Control,w
  5798  0507  0780               	addwf	0,f
  5799                           
  5800                           ;TriacRelay_B1.c: 159: if (Lights->Time >= Lights->RelayValue && Lights->RelaySet == 0) 
      +                          {
  5801  0508  0878               	movf	_Lights,w
  5802  0509  3E06               	addlw	6
  5803  050A  0084               	movwf	4
  5804  050B  0800               	movf	0,w
  5805  050C  00D6               	movwf	??_Lights_Control
  5806  050D  0878               	movf	_Lights,w
  5807  050E  3E02               	addlw	2
  5808  050F  0084               	movwf	4
  5809  0510  0800               	movf	0,w
  5810  0511  00D7               	movwf	??_Lights_Control+1
  5811  0512  0856               	movf	??_Lights_Control,w
  5812  0513  0257               	subwf	??_Lights_Control+1,w
  5813  0514  1C03               	skipc
  5814  0515  2D2D               	goto	l3613
  5815  0516  0878               	movf	_Lights,w
  5816  0517  0084               	movwf	4
  5817  0518  1B80               	btfsc	0,7
  5818  0519  2D2D               	goto	l3613
  5819                           
  5820                           ;TriacRelay_B1.c: 160: Lights->RelaySet = 1;
  5821  051A  0878               	movf	_Lights,w
  5822  051B  0084               	movwf	4
  5823  051C  1780               	bsf	0,7
  5824                           
  5825                           ;TriacRelay_B1.c: 162: if (lights == 1) {
  5826  051D  0876               	movf	Lights_Control@lights,w
  5827  051E  3A01               	xorlw	1
  5828  051F  1D03               	skipz
  5829  0520  0008               	return
  5830                           
  5831                           ;TriacRelay_B1.c: 163: RA4 = Lights->Status == 1 ? 1 : 0;
  5832  0521  0878               	movf	_Lights,w
  5833  0522  0084               	movwf	4
  5834  0523  1D00               	btfss	0,2
  5835  0524  2D29               	goto	u4020
  5836  0525  1283               	bcf	3,5	;RP0=0, select bank0
  5837  0526  1303               	bcf	3,6	;RP1=0, select bank0
  5838  0527  1605               	bsf	5,4	;volatile
  5839  0528  0008               	return
  5840  0529                     u4020:	
  5841  0529  1283               	bcf	3,5	;RP0=0, select bank0
  5842  052A  1303               	bcf	3,6	;RP1=0, select bank0
  5843  052B  1205               	bcf	5,4	;volatile
  5844                           
  5845                           ;TriacRelay_B1.c: 164: }
  5846                           ;TriacRelay_B1.c: 177: } else if (Lights->Time >= Lights->TriacValue) {
  5847  052C  0008               	return
  5848  052D                     l3613:	
  5849  052D  0878               	movf	_Lights,w
  5850  052E  3E04               	addlw	4
  5851  052F  0084               	movwf	4
  5852  0530  1383               	bcf	3,7	;select IRP bank0
  5853  0531  0800               	movf	0,w
  5854  0532  00D6               	movwf	??_Lights_Control
  5855  0533  0878               	movf	_Lights,w
  5856  0534  3E02               	addlw	2
  5857  0535  0084               	movwf	4
  5858  0536  0800               	movf	0,w
  5859  0537  00D7               	movwf	??_Lights_Control+1
  5860  0538  0856               	movf	??_Lights_Control,w
  5861  0539  0257               	subwf	??_Lights_Control+1,w
  5862  053A  1C03               	skipc
  5863  053B  0008               	return
  5864                           
  5865                           ;TriacRelay_B1.c: 178: Lights->Time = 0;
  5866  053C  0878               	movf	_Lights,w
  5867  053D  3E02               	addlw	2
  5868  053E  0084               	movwf	4
  5869  053F  0180               	clrf	0
  5870                           
  5871                           ;TriacRelay_B1.c: 179: Lights->GO = 0;
  5872  0540  0878               	movf	_Lights,w
  5873  0541  0084               	movwf	4
  5874  0542  1080               	bcf	0,1
  5875                           
  5876                           ;TriacRelay_B1.c: 180: Lights->RelaySet = 0;
  5877  0543  0878               	movf	_Lights,w
  5878  0544  0084               	movwf	4
  5879  0545  1380               	bcf	0,7
  5880                           
  5881                           ;TriacRelay_B1.c: 187: if (lights == 1) {
  5882  0546  0876               	movf	Lights_Control@lights,w
  5883  0547  3A01               	xorlw	1
  5884  0548  1D03               	skipz
  5885  0549  0008               	return
  5886                           
  5887                           ;TriacRelay_B1.c: 188: RB2 = 0;
  5888  054A  1106               	bcf	6,2	;volatile
  5889  054B  0008               	return
  5890  054C                     __end_of_Lights_Control:	
  5891                           
  5892                           	psect	text35
  5893  0FD6                     __ptext35:	
  5894 ;; *************** function _Lights_Close *****************
  5895 ;; Defined at:
  5896 ;;		line 85 in file "../src/TriacRelay_B1.c"
  5897 ;; Parameters:    Size  Location     Type
  5898 ;;		None
  5899 ;; Auto vars:     Size  Location     Type
  5900 ;;		None
  5901 ;; Return value:  Size  Location     Type
  5902 ;;		None               void
  5903 ;; Registers used:
  5904 ;;		wreg, fsr0l, fsr0h, status,2, status,0, pclath, cstack
  5905 ;; Tracked objects:
  5906 ;;		On entry : 0/0
  5907 ;;		On exit  : 0/0
  5908 ;;		Unchanged: 0/0
  5909 ;; Data sizes:     COMMON   BANK0   BANK1   BANK2
  5910 ;;      Params:         0       0       0       0
  5911 ;;      Locals:         0       0       0       0
  5912 ;;      Temps:          0       1       0       0
  5913 ;;      Totals:         0       1       0       0
  5914 ;;Total ram usage:        1 bytes
  5915 ;; Hardware stack levels used:    1
  5916 ;; Hardware stack levels required when called:    5
  5917 ;; This function calls:
  5918 ;;		_getMain_LightsStatus
  5919 ;; This function is called by:
  5920 ;;		_Lights_Main
  5921 ;; This function uses a non-reentrant model
  5922 ;;
  5923                           
  5924                           
  5925                           ;psect for function _Lights_Close
  5926  0FD6                     _Lights_Close:	
  5927                           
  5928                           ;TriacRelay_B1.c: 86: if (LightsControl.Detect == 1) {
  5929                           
  5930                           ;incstack = 0
  5931                           ; Regs used in _Lights_Close: [wreg-fsr0h+status,2+status,0+pclath+cstack]
  5932  0FD6  1283               	bcf	3,5	;RP0=0, select bank0
  5933  0FD7  1303               	bcf	3,6	;RP1=0, select bank0
  5934  0FD8  1C36               	btfss	_LightsControl,0
  5935  0FD9  0008               	return
  5936                           
  5937                           ;TriacRelay_B1.c: 87: LightsControl.Detect = 0;
  5938  0FDA  1036               	bcf	_LightsControl,0
  5939                           
  5940                           ;TriacRelay_B1.c: 88: LightsControl.LoadGO = getMain_LightsStatus() == 0 ? 0 : 1;
  5941  0FDB  118A  26D7         	fcall	_getMain_LightsStatus
  5942  0FDD  3800               	iorlw	0
  5943  0FDE  3000               	movlw	0
  5944  0FDF  1D03               	skipz
  5945  0FE0  3001               	movlw	1
  5946  0FE1  1283               	bcf	3,5	;RP0=0, select bank0
  5947  0FE2  1303               	bcf	3,6	;RP1=0, select bank0
  5948  0FE3  00DC               	movwf	??_Lights_Close
  5949  0FE4  0DDC               	rlf	??_Lights_Close,f
  5950  0FE5  0836               	movf	_LightsControl,w
  5951  0FE6  065C               	xorwf	??_Lights_Close,w
  5952  0FE7  39FD               	andlw	-3
  5953  0FE8  065C               	xorwf	??_Lights_Close,w
  5954  0FE9  00B6               	movwf	_LightsControl
  5955  0FEA  0008               	return
  5956  0FEB                     __end_of_Lights_Close:	
  5957                           
  5958                           	psect	text36
  5959  06D7                     __ptext36:	
  5960 ;; *************** function _getMain_LightsStatus *****************
  5961 ;; Defined at:
  5962 ;;		line 338 in file "../src/Main_B1.c"
  5963 ;; Parameters:    Size  Location     Type
  5964 ;;		None
  5965 ;; Auto vars:     Size  Location     Type
  5966 ;;  i               2    3[BANK0 ] int 
  5967 ;;  status          1    5[BANK0 ] unsigned char 
  5968 ;;  count           1    2[BANK0 ] unsigned char 
  5969 ;; Return value:  Size  Location     Type
  5970 ;;                  1    wreg      unsigned char 
  5971 ;; Registers used:
  5972 ;;		wreg, fsr0l, fsr0h, status,2, status,0, pclath, cstack
  5973 ;; Tracked objects:
  5974 ;;		On entry : 0/0
  5975 ;;		On exit  : 0/0
  5976 ;;		Unchanged: 0/0
  5977 ;; Data sizes:     COMMON   BANK0   BANK1   BANK2
  5978 ;;      Params:         0       0       0       0
  5979 ;;      Locals:         0       4       0       0
  5980 ;;      Temps:          1       0       0       0
  5981 ;;      Totals:         1       4       0       0
  5982 ;;Total ram usage:        5 bytes
  5983 ;; Hardware stack levels used:    1
  5984 ;; Hardware stack levels required when called:    4
  5985 ;; This function calls:
  5986 ;;		_getLights_Status
  5987 ;; This function is called by:
  5988 ;;		_setTemp_Main
  5989 ;;		_Lights_Close
  5990 ;; This function uses a non-reentrant model
  5991 ;;
  5992                           
  5993                           
  5994                           ;psect for function _getMain_LightsStatus
  5995  06D7                     _getMain_LightsStatus:	
  5996                           
  5997                           ;Main_B1.c: 339: char status = 0, count = 0;
  5998                           
  5999                           ;incstack = 0
  6000                           ; Regs used in _getMain_LightsStatus: [wreg-fsr0h+status,2+status,0+pclath+cstack]
  6001  06D7  1283               	bcf	3,5	;RP0=0, select bank0
  6002  06D8  1303               	bcf	3,6	;RP1=0, select bank0
  6003  06D9  01DB               	clrf	getMain_LightsStatus@status
  6004  06DA  01D8               	clrf	getMain_LightsStatus@count
  6005                           
  6006                           ;Main_B1.c: 342: count = 1;
  6007  06DB  01D8               	clrf	getMain_LightsStatus@count
  6008  06DC  0AD8               	incf	getMain_LightsStatus@count,f
  6009                           
  6010                           ;Main_B1.c: 351: for (int i = 0; i < count; i++) {
  6011  06DD  01D9               	clrf	getMain_LightsStatus@i
  6012  06DE  01DA               	clrf	getMain_LightsStatus@i+1
  6013  06DF                     l3385:	
  6014  06DF  085A               	movf	getMain_LightsStatus@i+1,w
  6015  06E0  3A80               	xorlw	128
  6016  06E1  00F6               	movwf	??_getMain_LightsStatus
  6017  06E2  3080               	movlw	128
  6018  06E3  0276               	subwf	??_getMain_LightsStatus,w
  6019  06E4  1D03               	skipz
  6020  06E5  2EE8               	goto	u3505
  6021  06E6  0858               	movf	getMain_LightsStatus@count,w
  6022  06E7  0259               	subwf	getMain_LightsStatus@i,w
  6023  06E8                     u3505:	
  6024  06E8  1803               	btfsc	3,0
  6025  06E9  2F04               	goto	l3387
  6026                           
  6027                           ;Main_B1.c: 352: if (status == 0) {
  6028  06EA  1283               	bcf	3,5	;RP0=0, select bank0
  6029  06EB  1303               	bcf	3,6	;RP1=0, select bank0
  6030  06EC  08DB               	movf	getMain_LightsStatus@status,f
  6031  06ED  1D03               	skipz
  6032  06EE  2EFD               	goto	l3383
  6033                           
  6034                           ;Main_B1.c: 354: status = getLights_Status(i + 1) == 1 ? 1 : 0;
  6035  06EF  0859               	movf	getMain_LightsStatus@i,w
  6036  06F0  3E01               	addlw	1
  6037  06F1  158A  277C  118A   	fcall	_getLights_Status
  6038  06F4  3A01               	xorlw	1
  6039  06F5  3000               	movlw	0
  6040  06F6  1903               	skipnz
  6041  06F7  3001               	movlw	1
  6042  06F8  00F6               	movwf	??_getMain_LightsStatus
  6043  06F9  0876               	movf	??_getMain_LightsStatus,w
  6044  06FA  1283               	bcf	3,5	;RP0=0, select bank0
  6045  06FB  1303               	bcf	3,6	;RP1=0, select bank0
  6046  06FC  00DB               	movwf	getMain_LightsStatus@status
  6047  06FD                     l3383:	
  6048  06FD  3001               	movlw	1
  6049  06FE  07D9               	addwf	getMain_LightsStatus@i,f
  6050  06FF  1803               	skipnc
  6051  0700  0ADA               	incf	getMain_LightsStatus@i+1,f
  6052  0701  3000               	movlw	0
  6053  0702  07DA               	addwf	getMain_LightsStatus@i+1,f
  6054  0703  2EDF               	goto	l3385
  6055  0704                     l3387:	
  6056                           
  6057                           ;Main_B1.c: 359: }
  6058                           ;Main_B1.c: 360: }
  6059                           ;Main_B1.c: 361: return status;
  6060  0704  1283               	bcf	3,5	;RP0=0, select bank0
  6061  0705  1303               	bcf	3,6	;RP1=0, select bank0
  6062  0706  085B               	movf	getMain_LightsStatus@status,w
  6063  0707  0008               	return
  6064  0708                     __end_of_getMain_LightsStatus:	
  6065                           
  6066                           	psect	text37
  6067  0F7C                     __ptext37:	
  6068 ;; *************** function _getLights_Status *****************
  6069 ;; Defined at:
  6070 ;;		line 207 in file "../src/TriacRelay_B1.c"
  6071 ;; Parameters:    Size  Location     Type
  6072 ;;  lights          1    wreg     unsigned char 
  6073 ;; Auto vars:     Size  Location     Type
  6074 ;;  lights          1    0[BANK0 ] unsigned char 
  6075 ;;  status          1    1[BANK0 ] unsigned char 
  6076 ;; Return value:  Size  Location     Type
  6077 ;;                  1    wreg      unsigned char 
  6078 ;; Registers used:
  6079 ;;		wreg, fsr0l, fsr0h, status,2, status,0, pclath, cstack
  6080 ;; Tracked objects:
  6081 ;;		On entry : 0/0
  6082 ;;		On exit  : 0/0
  6083 ;;		Unchanged: 0/0
  6084 ;; Data sizes:     COMMON   BANK0   BANK1   BANK2
  6085 ;;      Params:         0       0       0       0
  6086 ;;      Locals:         0       2       0       0
  6087 ;;      Temps:          0       0       0       0
  6088 ;;      Totals:         0       2       0       0
  6089 ;;Total ram usage:        2 bytes
  6090 ;; Hardware stack levels used:    1
  6091 ;; Hardware stack levels required when called:    3
  6092 ;; This function calls:
  6093 ;;		_LightsPointSelect
  6094 ;; This function is called by:
  6095 ;;		_getMain_LightsStatus
  6096 ;;		_PIR_Main
  6097 ;; This function uses a non-reentrant model
  6098 ;;
  6099                           
  6100                           
  6101                           ;psect for function _getLights_Status
  6102  0F7C                     _getLights_Status:	
  6103                           
  6104                           ;incstack = 0
  6105                           ; Regs used in _getLights_Status: [wreg-fsr0h+status,2+status,0+pclath+cstack]
  6106                           ;getLights_Status@lights stored from wreg
  6107  0F7C  1283               	bcf	3,5	;RP0=0, select bank0
  6108  0F7D  1303               	bcf	3,6	;RP1=0, select bank0
  6109  0F7E  00D6               	movwf	getLights_Status@lights
  6110                           
  6111                           ;TriacRelay_B1.c: 208: LightsPointSelect(lights);
  6112  0F7F  0856               	movf	getLights_Status@lights,w
  6113  0F80  158A  2707         	fcall	_LightsPointSelect
  6114                           
  6115                           ;TriacRelay_B1.c: 209: char status = Lights->Status == 1 ? 1 : 0;
  6116  0F82  0878               	movf	_Lights,w
  6117  0F83  0084               	movwf	4
  6118  0F84  3000               	movlw	0
  6119  0F85  1383               	bcf	3,7	;select IRP bank0
  6120  0F86  1900               	btfsc	0,2
  6121  0F87  3001               	movlw	1
  6122  0F88  1283               	bcf	3,5	;RP0=0, select bank0
  6123  0F89  1303               	bcf	3,6	;RP1=0, select bank0
  6124  0F8A  00D7               	movwf	getLights_Status@status
  6125                           
  6126                           ;TriacRelay_B1.c: 210: return status;
  6127  0F8B  0857               	movf	getLights_Status@status,w
  6128  0F8C  0008               	return
  6129  0F8D                     __end_of_getLights_Status:	
  6130                           
  6131                           	psect	text38
  6132  0EDC                     __ptext38:	
  6133 ;; *************** function _Lights_Initialization *****************
  6134 ;; Defined at:
  6135 ;;		line 34 in file "../src/TriacRelay_B1.c"
  6136 ;; Parameters:    Size  Location     Type
  6137 ;;		None
  6138 ;; Auto vars:     Size  Location     Type
  6139 ;;		None
  6140 ;; Return value:  Size  Location     Type
  6141 ;;		None               void
  6142 ;; Registers used:
  6143 ;;		wreg, status,2, status,0, pclath, cstack
  6144 ;; Tracked objects:
  6145 ;;		On entry : 0/0
  6146 ;;		On exit  : 0/0
  6147 ;;		Unchanged: 0/0
  6148 ;; Data sizes:     COMMON   BANK0   BANK1   BANK2
  6149 ;;      Params:         0       0       0       0
  6150 ;;      Locals:         0       0       0       0
  6151 ;;      Temps:          0       0       0       0
  6152 ;;      Totals:         0       0       0       0
  6153 ;;Total ram usage:        0 bytes
  6154 ;; Hardware stack levels used:    1
  6155 ;; Hardware stack levels required when called:    4
  6156 ;; This function calls:
  6157 ;;		_setLights_Initialization
  6158 ;; This function is called by:
  6159 ;;		_main
  6160 ;; This function uses a non-reentrant model
  6161 ;;
  6162                           
  6163                           
  6164                           ;psect for function _Lights_Initialization
  6165  0EDC                     _Lights_Initialization:	
  6166                           
  6167                           ;TriacRelay_B1.c: 36: setLights_Initialization(1);
  6168                           
  6169                           ;incstack = 0
  6170                           ; Regs used in _Lights_Initialization: [wreg+status,2+status,0+pclath+cstack]
  6171  0EDC  3001               	movlw	1
  6172  0EDD  158A  26E0         	fcall	_setLights_Initialization
  6173  0EDF  0008               	return
  6174  0EE0                     __end_of_Lights_Initialization:	
  6175                           
  6176                           	psect	text39
  6177  0EE0                     __ptext39:	
  6178 ;; *************** function _setLights_Initialization *****************
  6179 ;; Defined at:
  6180 ;;		line 49 in file "../src/TriacRelay_B1.c"
  6181 ;; Parameters:    Size  Location     Type
  6182 ;;  lights          1    wreg     unsigned char 
  6183 ;; Auto vars:     Size  Location     Type
  6184 ;;  lights          1    6[COMMON] unsigned char 
  6185 ;; Return value:  Size  Location     Type
  6186 ;;		None               void
  6187 ;; Registers used:
  6188 ;;		wreg, status,2, status,0, pclath, cstack
  6189 ;; Tracked objects:
  6190 ;;		On entry : 0/0
  6191 ;;		On exit  : 0/0
  6192 ;;		Unchanged: 0/0
  6193 ;; Data sizes:     COMMON   BANK0   BANK1   BANK2
  6194 ;;      Params:         0       0       0       0
  6195 ;;      Locals:         1       0       0       0
  6196 ;;      Temps:          0       0       0       0
  6197 ;;      Totals:         1       0       0       0
  6198 ;;Total ram usage:        1 bytes
  6199 ;; Hardware stack levels used:    1
  6200 ;; Hardware stack levels required when called:    3
  6201 ;; This function calls:
  6202 ;;		_LightsPointSelect
  6203 ;; This function is called by:
  6204 ;;		_Lights_Initialization
  6205 ;; This function uses a non-reentrant model
  6206 ;;
  6207                           
  6208                           
  6209                           ;psect for function _setLights_Initialization
  6210  0EE0                     _setLights_Initialization:	
  6211                           
  6212                           ;incstack = 0
  6213                           ; Regs used in _setLights_Initialization: [wreg+status,2+status,0+pclath+cstack]
  6214                           ;setLights_Initialization@lights stored from wreg
  6215  0EE0  00F6               	movwf	setLights_Initialization@lights
  6216                           
  6217                           ;TriacRelay_B1.c: 50: LightsPointSelect(lights);
  6218  0EE1  0876               	movf	setLights_Initialization@lights,w
  6219  0EE2  158A  2707         	fcall	_LightsPointSelect
  6220  0EE4  0008               	return
  6221  0EE5                     __end_of_setLights_Initialization:	
  6222                           
  6223                           	psect	text40
  6224  0F07                     __ptext40:	
  6225 ;; *************** function _LightsPointSelect *****************
  6226 ;; Defined at:
  6227 ;;		line 10 in file "../src/TriacRelay_B1.c"
  6228 ;; Parameters:    Size  Location     Type
  6229 ;;  lights          1    wreg     unsigned char 
  6230 ;; Auto vars:     Size  Location     Type
  6231 ;;  lights          1    5[COMMON] unsigned char 
  6232 ;; Return value:  Size  Location     Type
  6233 ;;		None               void
  6234 ;; Registers used:
  6235 ;;		wreg
  6236 ;; Tracked objects:
  6237 ;;		On entry : 0/0
  6238 ;;		On exit  : 0/0
  6239 ;;		Unchanged: 0/0
  6240 ;; Data sizes:     COMMON   BANK0   BANK1   BANK2
  6241 ;;      Params:         0       0       0       0
  6242 ;;      Locals:         1       0       0       0
  6243 ;;      Temps:          1       0       0       0
  6244 ;;      Totals:         2       0       0       0
  6245 ;;Total ram usage:        2 bytes
  6246 ;; Hardware stack levels used:    1
  6247 ;; Hardware stack levels required when called:    2
  6248 ;; This function calls:
  6249 ;;		Nothing
  6250 ;; This function is called by:
  6251 ;;		_setLights_Initialization
  6252 ;;		_setLights_Main
  6253 ;;		_setLights
  6254 ;;		_Lights_Control
  6255 ;;		_getLights_Status
  6256 ;;		_setLights_Trigger
  6257 ;;		_setLights_Line
  6258 ;;		_getAll_Lights_Line
  6259 ;; This function uses a non-reentrant model
  6260 ;;
  6261                           
  6262                           
  6263                           ;psect for function _LightsPointSelect
  6264  0F07                     _LightsPointSelect:	
  6265                           
  6266                           ;incstack = 0
  6267                           ; Regs used in _LightsPointSelect: [wreg]
  6268                           ;LightsPointSelect@lights stored from wreg
  6269  0F07  00F5               	movwf	LightsPointSelect@lights
  6270                           
  6271                           ;TriacRelay_B1.c: 14: if (lights == 1) {
  6272  0F08  0875               	movf	LightsPointSelect@lights,w
  6273  0F09  3A01               	xorlw	1
  6274  0F0A  1D03               	skipz
  6275  0F0B  0008               	return
  6276                           
  6277                           ;TriacRelay_B1.c: 15: Lights = &Lights1;
  6278  0F0C  3043               	movlw	_Lights1& (0+255)
  6279  0F0D  00F4               	movwf	??_LightsPointSelect
  6280  0F0E  0874               	movf	??_LightsPointSelect,w
  6281  0F0F  00F8               	movwf	_Lights
  6282  0F10  0008               	return
  6283  0F11                     __end_of_LightsPointSelect:	
  6284                           
  6285                           	psect	text41
  6286  0ECF                     __ptext41:	
  6287 ;; *************** function _LED_Main *****************
  6288 ;; Defined at:
  6289 ;;		line 47 in file "../src/LED_B1.c"
  6290 ;; Parameters:    Size  Location     Type
  6291 ;;		None
  6292 ;; Auto vars:     Size  Location     Type
  6293 ;;		None
  6294 ;; Return value:  Size  Location     Type
  6295 ;;		None               void
  6296 ;; Registers used:
  6297 ;;		wreg, fsr0l, fsr0h, status,2, status,0, pclath, cstack
  6298 ;; Tracked objects:
  6299 ;;		On entry : 0/0
  6300 ;;		On exit  : 0/0
  6301 ;;		Unchanged: 0/0
  6302 ;; Data sizes:     COMMON   BANK0   BANK1   BANK2
  6303 ;;      Params:         0       0       0       0
  6304 ;;      Locals:         0       0       0       0
  6305 ;;      Temps:          0       0       0       0
  6306 ;;      Totals:         0       0       0       0
  6307 ;;Total ram usage:        0 bytes
  6308 ;; Hardware stack levels used:    1
  6309 ;; Hardware stack levels required when called:    5
  6310 ;; This function calls:
  6311 ;;		_setPIRLED_Main
  6312 ;; This function is called by:
  6313 ;;		_main
  6314 ;; This function uses a non-reentrant model
  6315 ;;
  6316                           
  6317                           
  6318                           ;psect for function _LED_Main
  6319  0ECF                     _LED_Main:	
  6320                           
  6321                           ;LED_B1.c: 50: setPIRLED_Main();
  6322                           
  6323                           ;incstack = 0
  6324                           ; Regs used in _LED_Main: [wreg-fsr0h+status,2+status,0+pclath+cstack]
  6325  0ECF  118A  2429         	fcall	_setPIRLED_Main
  6326  0ED1  0008               	return
  6327  0ED2                     __end_of_LED_Main:	
  6328                           
  6329                           	psect	text42
  6330  0429                     __ptext42:	
  6331 ;; *************** function _setPIRLED_Main *****************
  6332 ;; Defined at:
  6333 ;;		line 253 in file "../src/LED_B1.c"
  6334 ;; Parameters:    Size  Location     Type
  6335 ;;		None
  6336 ;; Auto vars:     Size  Location     Type
  6337 ;;  count           1    2[BANK0 ] unsigned char 
  6338 ;; Return value:  Size  Location     Type
  6339 ;;		None               void
  6340 ;; Registers used:
  6341 ;;		wreg, fsr0l, fsr0h, status,2, status,0, pclath, cstack
  6342 ;; Tracked objects:
  6343 ;;		On entry : 0/0
  6344 ;;		On exit  : 0/0
  6345 ;;		Unchanged: 0/0
  6346 ;; Data sizes:     COMMON   BANK0   BANK1   BANK2
  6347 ;;      Params:         0       0       0       0
  6348 ;;      Locals:         0       1       0       0
  6349 ;;      Temps:          0       1       0       0
  6350 ;;      Totals:         0       2       0       0
  6351 ;;Total ram usage:        2 bytes
  6352 ;; Hardware stack levels used:    1
  6353 ;; Hardware stack levels required when called:    4
  6354 ;; This function calls:
  6355 ;;		_setLED
  6356 ;; This function is called by:
  6357 ;;		_LED_Main
  6358 ;; This function uses a non-reentrant model
  6359 ;;
  6360                           
  6361                           
  6362                           ;psect for function _setPIRLED_Main
  6363  0429                     _setPIRLED_Main:	
  6364                           
  6365                           ;LED_B1.c: 254: char count;
  6366                           ;LED_B1.c: 255: if (PIRLED.GO == 1) {
  6367                           
  6368                           ;incstack = 0
  6369                           ; Regs used in _setPIRLED_Main: [wreg-fsr0h+status,2+status,0+pclath+cstack]
  6370  0429  1283               	bcf	3,5	;RP0=0, select bank0
  6371  042A  1303               	bcf	3,6	;RP1=0, select bank0
  6372  042B  1C2D               	btfss	_PIRLED,0
  6373  042C  0008               	return
  6374                           
  6375                           ;LED_B1.c: 256: PIRLED.Time++;
  6376  042D  3001               	movlw	1
  6377  042E  07AF               	addwf	_PIRLED+2,f
  6378  042F  1803               	skipnc
  6379  0430  0AB0               	incf	_PIRLED+3,f
  6380  0431  3000               	movlw	0
  6381  0432  07B0               	addwf	_PIRLED+3,f
  6382                           
  6383                           ;LED_B1.c: 257: if (PIRLED.Time >= 500 / 10) {
  6384  0433  3000               	movlw	0
  6385  0434  0230               	subwf	_PIRLED+3,w
  6386  0435  3032               	movlw	50
  6387  0436  1903               	skipnz
  6388  0437  022F               	subwf	_PIRLED+2,w
  6389  0438  1C03               	skipc
  6390  0439  0008               	return
  6391                           
  6392                           ;LED_B1.c: 258: PIRLED.Time = 0;
  6393  043A  01AF               	clrf	_PIRLED+2
  6394  043B  01B0               	clrf	_PIRLED+3
  6395                           
  6396                           ;LED_B1.c: 259: setLED(1, 0);
  6397  043C  01F6               	clrf	setLED@command
  6398  043D  3001               	movlw	1
  6399  043E  118A  23B2  118A   	fcall	_setLED
  6400                           
  6401                           ;LED_B1.c: 260: setLED(2, 0);
  6402  0441  01F6               	clrf	setLED@command
  6403  0442  3002               	movlw	2
  6404  0443  118A  23B2  118A   	fcall	_setLED
  6405                           
  6406                           ;LED_B1.c: 261: if (PIRLED.GO1 == 1) {
  6407  0446  1283               	bcf	3,5	;RP0=0, select bank0
  6408  0447  1303               	bcf	3,6	;RP1=0, select bank0
  6409  0448  1CAD               	btfss	_PIRLED,1
  6410  0449  2C4E               	goto	l3475
  6411                           
  6412                           ;LED_B1.c: 262: count = 4;
  6413  044A  3004               	movlw	4
  6414  044B  00D7               	movwf	??_setPIRLED_Main
  6415  044C  0857               	movf	??_setPIRLED_Main,w
  6416  044D  00D8               	movwf	setPIRLED_Main@count
  6417  044E                     l3475:	
  6418                           
  6419                           ;LED_B1.c: 263: }
  6420                           ;LED_B1.c: 264: if (PIRLED.GO2 == 1) {
  6421  044E  1D2D               	btfss	_PIRLED,2
  6422  044F  2C54               	goto	l3479
  6423                           
  6424                           ;LED_B1.c: 265: count = 6;
  6425  0450  3006               	movlw	6
  6426  0451  00D7               	movwf	??_setPIRLED_Main
  6427  0452  0857               	movf	??_setPIRLED_Main,w
  6428  0453  00D8               	movwf	setPIRLED_Main@count
  6429  0454                     l3479:	
  6430                           
  6431                           ;LED_B1.c: 266: }
  6432                           ;LED_B1.c: 267: if (PIRLED.GO3 == 1) {
  6433  0454  1DAD               	btfss	_PIRLED,3
  6434  0455  2C5A               	goto	l3483
  6435                           
  6436                           ;LED_B1.c: 268: count = 8;
  6437  0456  3008               	movlw	8
  6438  0457  00D7               	movwf	??_setPIRLED_Main
  6439  0458  0857               	movf	??_setPIRLED_Main,w
  6440  0459  00D8               	movwf	setPIRLED_Main@count
  6441  045A                     l3483:	
  6442                           
  6443                           ;LED_B1.c: 269: }
  6444                           ;LED_B1.c: 270: PIRLED.Count++;
  6445  045A  3001               	movlw	1
  6446  045B  00D7               	movwf	??_setPIRLED_Main
  6447  045C  0857               	movf	??_setPIRLED_Main,w
  6448  045D  07AE               	addwf	_PIRLED+1,f
  6449                           
  6450                           ;LED_B1.c: 271: if (PIRLED.Count == 1 || PIRLED.Count == 2) {
  6451  045E  082E               	movf	_PIRLED+1,w
  6452  045F  3A01               	xorlw	1
  6453  0460  1903               	skipnz
  6454  0461  2C66               	goto	l3489
  6455  0462  082E               	movf	_PIRLED+1,w
  6456  0463  3A02               	xorlw	2
  6457  0464  1D03               	skipz
  6458  0465  2C7A               	goto	l3493
  6459  0466                     l3489:	
  6460                           
  6461                           ;LED_B1.c: 272: PIRLED.status = PIRLED.status == 1 ? 0 : 1;
  6462  0466  1003               	clrc
  6463  0467  1E2D               	btfss	_PIRLED,4
  6464  0468  1403               	setc
  6465  0469  1C03               	btfss	3,0
  6466  046A  2C6F               	goto	u3720
  6467  046B  1283               	bcf	3,5	;RP0=0, select bank0
  6468  046C  1303               	bcf	3,6	;RP1=0, select bank0
  6469  046D  162D               	bsf	_PIRLED,4
  6470  046E  2C72               	goto	l3491
  6471  046F                     u3720:	
  6472  046F  1283               	bcf	3,5	;RP0=0, select bank0
  6473  0470  1303               	bcf	3,6	;RP1=0, select bank0
  6474  0471  122D               	bcf	_PIRLED,4
  6475  0472                     l3491:	
  6476                           
  6477                           ;LED_B1.c: 273: setLED(2, PIRLED.status);
  6478  0472  3000               	movlw	0
  6479  0473  1A2D               	btfsc	_PIRLED,4
  6480  0474  3001               	movlw	1
  6481  0475  00F6               	movwf	setLED@command
  6482  0476  3002               	movlw	2
  6483  0477  118A  23B2         	fcall	_setLED
  6484                           
  6485                           ;LED_B1.c: 274: } else {
  6486  0479  0008               	return
  6487  047A                     l3493:	
  6488                           
  6489                           ;LED_B1.c: 275: PIRLED.status = PIRLED.status == 1 ? 0 : 1;
  6490  047A  1003               	clrc
  6491  047B  1283               	bcf	3,5	;RP0=0, select bank0
  6492  047C  1303               	bcf	3,6	;RP1=0, select bank0
  6493  047D  1E2D               	btfss	_PIRLED,4
  6494  047E  1403               	setc
  6495  047F  1C03               	btfss	3,0
  6496  0480  2C85               	goto	u3740
  6497  0481  1283               	bcf	3,5	;RP0=0, select bank0
  6498  0482  1303               	bcf	3,6	;RP1=0, select bank0
  6499  0483  162D               	bsf	_PIRLED,4
  6500  0484  2C88               	goto	l3495
  6501  0485                     u3740:	
  6502  0485  1283               	bcf	3,5	;RP0=0, select bank0
  6503  0486  1303               	bcf	3,6	;RP1=0, select bank0
  6504  0487  122D               	bcf	_PIRLED,4
  6505  0488                     l3495:	
  6506                           
  6507                           ;LED_B1.c: 276: setLED(1, PIRLED.status);
  6508  0488  3000               	movlw	0
  6509  0489  1A2D               	btfsc	_PIRLED,4
  6510  048A  3001               	movlw	1
  6511  048B  00F6               	movwf	setLED@command
  6512  048C  3001               	movlw	1
  6513  048D  118A  23B2  118A   	fcall	_setLED
  6514                           
  6515                           ;LED_B1.c: 277: if (PIRLED.Count == count) {
  6516  0490  1283               	bcf	3,5	;RP0=0, select bank0
  6517  0491  1303               	bcf	3,6	;RP1=0, select bank0
  6518  0492  082E               	movf	_PIRLED+1,w
  6519  0493  0658               	xorwf	setPIRLED_Main@count,w
  6520  0494  1D03               	skipz
  6521  0495  0008               	return
  6522                           
  6523                           ;LED_B1.c: 278: PIRLED.Count = 0;
  6524  0496  01AE               	clrf	_PIRLED+1
  6525  0497  0008               	return
  6526  0498                     __end_of_setPIRLED_Main:	
  6527                           
  6528                           	psect	text43
  6529  0F1C                     __ptext43:	
  6530 ;; *************** function _LED_Initialization *****************
  6531 ;; Defined at:
  6532 ;;		line 31 in file "../src/LED_B1.c"
  6533 ;; Parameters:    Size  Location     Type
  6534 ;;		None
  6535 ;; Auto vars:     Size  Location     Type
  6536 ;;		None
  6537 ;; Return value:  Size  Location     Type
  6538 ;;		None               void
  6539 ;; Registers used:
  6540 ;;		wreg, fsr0l, fsr0h, status,2, status,0, pclath, cstack
  6541 ;; Tracked objects:
  6542 ;;		On entry : 0/0
  6543 ;;		On exit  : 0/0
  6544 ;;		Unchanged: 0/0
  6545 ;; Data sizes:     COMMON   BANK0   BANK1   BANK2
  6546 ;;      Params:         0       0       0       0
  6547 ;;      Locals:         0       0       0       0
  6548 ;;      Temps:          0       0       0       0
  6549 ;;      Totals:         0       0       0       0
  6550 ;;Total ram usage:        0 bytes
  6551 ;; Hardware stack levels used:    1
  6552 ;; Hardware stack levels required when called:    5
  6553 ;; This function calls:
  6554 ;;		_setLED_Initialization
  6555 ;; This function is called by:
  6556 ;;		_main
  6557 ;; This function uses a non-reentrant model
  6558 ;;
  6559                           
  6560                           
  6561                           ;psect for function _LED_Initialization
  6562  0F1C                     _LED_Initialization:	
  6563                           
  6564                           ;LED_B1.c: 33: setLED_Initialization(1);
  6565                           
  6566                           ;incstack = 0
  6567                           ; Regs used in _LED_Initialization: [wreg-fsr0h+status,2+status,0+pclath+cstack]
  6568  0F1C  3001               	movlw	1
  6569  0F1D  158A  279E  158A   	fcall	_setLED_Initialization
  6570                           
  6571                           ;LED_B1.c: 36: setLED_Initialization(2);
  6572  0F20  3002               	movlw	2
  6573  0F21  158A  279E  158A   	fcall	_setLED_Initialization
  6574                           
  6575                           ;LED_B1.c: 42: setLED_Initialization(99);
  6576  0F24  3063               	movlw	99
  6577  0F25  158A  279E         	fcall	_setLED_Initialization
  6578  0F27  0008               	return
  6579  0F28                     __end_of_LED_Initialization:	
  6580                           
  6581                           	psect	text44
  6582  0F9E                     __ptext44:	
  6583 ;; *************** function _setLED_Initialization *****************
  6584 ;; Defined at:
  6585 ;;		line 69 in file "../src/LED_B1.c"
  6586 ;; Parameters:    Size  Location     Type
  6587 ;;  led             1    wreg     unsigned char 
  6588 ;; Auto vars:     Size  Location     Type
  6589 ;;  led             1    1[BANK0 ] unsigned char 
  6590 ;; Return value:  Size  Location     Type
  6591 ;;		None               void
  6592 ;; Registers used:
  6593 ;;		wreg, fsr0l, fsr0h, status,2, status,0, pclath, cstack
  6594 ;; Tracked objects:
  6595 ;;		On entry : 0/0
  6596 ;;		On exit  : 0/0
  6597 ;;		Unchanged: 0/0
  6598 ;; Data sizes:     COMMON   BANK0   BANK1   BANK2
  6599 ;;      Params:         0       0       0       0
  6600 ;;      Locals:         0       1       0       0
  6601 ;;      Temps:          0       0       0       0
  6602 ;;      Totals:         0       1       0       0
  6603 ;;Total ram usage:        1 bytes
  6604 ;; Hardware stack levels used:    1
  6605 ;; Hardware stack levels required when called:    4
  6606 ;; This function calls:
  6607 ;;		_LedPointSelect
  6608 ;;		_setLED
  6609 ;; This function is called by:
  6610 ;;		_LED_Initialization
  6611 ;; This function uses a non-reentrant model
  6612 ;;
  6613                           
  6614                           
  6615                           ;psect for function _setLED_Initialization
  6616  0F9E                     _setLED_Initialization:	
  6617                           
  6618                           ;incstack = 0
  6619                           ; Regs used in _setLED_Initialization: [wreg-fsr0h+status,2+status,0+pclath+cstack]
  6620                           ;setLED_Initialization@led stored from wreg
  6621  0F9E  1283               	bcf	3,5	;RP0=0, select bank0
  6622  0F9F  1303               	bcf	3,6	;RP1=0, select bank0
  6623  0FA0  00D7               	movwf	setLED_Initialization@led
  6624                           
  6625                           ;LED_B1.c: 70: LedPointSelect(led);
  6626  0FA1  0857               	movf	setLED_Initialization@led,w
  6627  0FA2  118A  27D2  158A   	fcall	_LedPointSelect
  6628                           
  6629                           ;LED_B1.c: 71: LED->Enable = 1;
  6630  0FA5  0877               	movf	_LED,w
  6631  0FA6  0084               	movwf	4
  6632  0FA7  1383               	bcf	3,7	;select IRP bank0
  6633  0FA8  1400               	bsf	0,0
  6634                           
  6635                           ;LED_B1.c: 72: setLED(led, 0);
  6636  0FA9  01F6               	clrf	setLED@command
  6637  0FAA  1283               	bcf	3,5	;RP0=0, select bank0
  6638  0FAB  1303               	bcf	3,6	;RP1=0, select bank0
  6639  0FAC  0857               	movf	setLED_Initialization@led,w
  6640  0FAD  118A  23B2         	fcall	_setLED
  6641  0FAF  0008               	return
  6642  0FB0                     __end_of_setLED_Initialization:	
  6643                           
  6644                           	psect	text45
  6645  03B2                     __ptext45:	
  6646 ;; *************** function _setLED *****************
  6647 ;; Defined at:
  6648 ;;		line 76 in file "../src/LED_B1.c"
  6649 ;; Parameters:    Size  Location     Type
  6650 ;;  led             1    wreg     unsigned char 
  6651 ;;  command         1    6[COMMON] unsigned char 
  6652 ;; Auto vars:     Size  Location     Type
  6653 ;;  led             1    0[BANK0 ] unsigned char 
  6654 ;; Return value:  Size  Location     Type
  6655 ;;		None               void
  6656 ;; Registers used:
  6657 ;;		wreg, fsr0l, fsr0h, status,2, status,0, pclath, cstack
  6658 ;; Tracked objects:
  6659 ;;		On entry : 0/0
  6660 ;;		On exit  : 0/0
  6661 ;;		Unchanged: 0/0
  6662 ;; Data sizes:     COMMON   BANK0   BANK1   BANK2
  6663 ;;      Params:         1       0       0       0
  6664 ;;      Locals:         0       1       0       0
  6665 ;;      Temps:          0       0       0       0
  6666 ;;      Totals:         1       1       0       0
  6667 ;;Total ram usage:        2 bytes
  6668 ;; Hardware stack levels used:    1
  6669 ;; Hardware stack levels required when called:    3
  6670 ;; This function calls:
  6671 ;;		_LedPointSelect
  6672 ;; This function is called by:
  6673 ;;		_setLED_Initialization
  6674 ;;		_setPIRLED_Main
  6675 ;;		_setMain_Exception
  6676 ;;		_PIR_Initialization
  6677 ;;		_PIR_Main
  6678 ;; This function uses a non-reentrant model
  6679 ;;
  6680                           
  6681                           
  6682                           ;psect for function _setLED
  6683  03B2                     _setLED:	
  6684                           
  6685                           ;incstack = 0
  6686                           ; Regs used in _setLED: [wreg-fsr0h+status,2+status,0+pclath+cstack]
  6687                           ;setLED@led stored from wreg
  6688  03B2  1283               	bcf	3,5	;RP0=0, select bank0
  6689  03B3  1303               	bcf	3,6	;RP1=0, select bank0
  6690  03B4  00D6               	movwf	setLED@led
  6691                           
  6692                           ;LED_B1.c: 77: LedPointSelect(led);
  6693  03B5  0856               	movf	setLED@led,w
  6694  03B6  118A  27D2  118A   	fcall	_LedPointSelect
  6695                           
  6696                           ;LED_B1.c: 78: if (command == 0) {
  6697  03B9  08F6               	movf	setLED@command,f
  6698  03BA  1D03               	skipz
  6699  03BB  2BCA               	goto	l3293
  6700                           
  6701                           ;LED_B1.c: 80: if (led == 1) {
  6702  03BC  1283               	bcf	3,5	;RP0=0, select bank0
  6703  03BD  1303               	bcf	3,6	;RP1=0, select bank0
  6704  03BE  0856               	movf	setLED@led,w
  6705  03BF  3A01               	xorlw	1
  6706  03C0  1903               	btfsc	3,2
  6707                           
  6708                           ;LED_B1.c: 84: RB4 = 1;
  6709  03C1  1606               	bsf	6,4	;volatile
  6710                           
  6711                           ;LED_B1.c: 86: }
  6712                           ;LED_B1.c: 89: if (led == 2) {
  6713  03C2  0856               	movf	setLED@led,w
  6714  03C3  3A02               	xorlw	2
  6715  03C4  1903               	btfsc	3,2
  6716                           
  6717                           ;LED_B1.c: 93: RB5 = 1;
  6718  03C5  1686               	bsf	6,5	;volatile
  6719                           
  6720                           ;LED_B1.c: 95: }
  6721                           ;LED_B1.c: 107: if (led == 99) {
  6722  03C6  0856               	movf	setLED@led,w
  6723  03C7  3A63               	xorlw	99
  6724  03C8  1903               	btfsc	3,2
  6725                           
  6726                           ;LED_B1.c: 111: RB3 = 1;
  6727  03C9  1586               	bsf	6,3	;volatile
  6728  03CA                     l3293:	
  6729                           
  6730                           ;LED_B1.c: 113: }
  6731                           ;LED_B1.c: 115: }
  6732                           ;LED_B1.c: 116: if (command == 1) {
  6733  03CA  0876               	movf	setLED@command,w
  6734  03CB  3A01               	xorlw	1
  6735  03CC  1D03               	skipz
  6736  03CD  2BDC               	goto	l3307
  6737                           
  6738                           ;LED_B1.c: 118: if (led == 1) {
  6739  03CE  1283               	bcf	3,5	;RP0=0, select bank0
  6740  03CF  1303               	bcf	3,6	;RP1=0, select bank0
  6741  03D0  0856               	movf	setLED@led,w
  6742  03D1  3A01               	xorlw	1
  6743  03D2  1903               	btfsc	3,2
  6744                           
  6745                           ;LED_B1.c: 122: RB4 = 0;
  6746  03D3  1206               	bcf	6,4	;volatile
  6747                           
  6748                           ;LED_B1.c: 124: }
  6749                           ;LED_B1.c: 127: if (led == 2) {
  6750  03D4  0856               	movf	setLED@led,w
  6751  03D5  3A02               	xorlw	2
  6752  03D6  1903               	btfsc	3,2
  6753                           
  6754                           ;LED_B1.c: 131: RB5 = 0;
  6755  03D7  1286               	bcf	6,5	;volatile
  6756                           
  6757                           ;LED_B1.c: 133: }
  6758                           ;LED_B1.c: 145: if (led == 99) {
  6759  03D8  0856               	movf	setLED@led,w
  6760  03D9  3A63               	xorlw	99
  6761  03DA  1903               	btfsc	3,2
  6762                           
  6763                           ;LED_B1.c: 149: RB3 = 0;
  6764  03DB  1186               	bcf	6,3	;volatile
  6765  03DC                     l3307:	
  6766                           
  6767                           ;LED_B1.c: 151: }
  6768                           ;LED_B1.c: 153: }
  6769                           ;LED_B1.c: 154: if (command == 10) {
  6770  03DC  0876               	movf	setLED@command,w
  6771  03DD  3A0A               	xorlw	10
  6772  03DE  1D03               	skipz
  6773  03DF  2BF9               	goto	l3325
  6774                           
  6775                           ;LED_B1.c: 155: LED->GO = 0;
  6776  03E0  0877               	movf	_LED,w
  6777  03E1  0084               	movwf	4
  6778  03E2  1383               	bcf	3,7	;select IRP bank0
  6779  03E3  1080               	bcf	0,1
  6780                           
  6781                           ;LED_B1.c: 156: LED->Time = 0;
  6782  03E4  0A77               	incf	_LED,w
  6783  03E5  0084               	movwf	4
  6784  03E6  0180               	clrf	0
  6785  03E7  0A84               	incf	4,f
  6786  03E8  0180               	clrf	0
  6787                           
  6788                           ;LED_B1.c: 158: if (led == 1) {
  6789  03E9  1283               	bcf	3,5	;RP0=0, select bank0
  6790  03EA  1303               	bcf	3,6	;RP1=0, select bank0
  6791  03EB  0856               	movf	setLED@led,w
  6792  03EC  3A01               	xorlw	1
  6793  03ED  1D03               	skipz
  6794  03EE  2BF1               	goto	l3317
  6795                           
  6796                           ;LED_B1.c: 162: RB4 = 1;
  6797  03EF  1606               	bsf	6,4	;volatile
  6798                           
  6799                           ;LED_B1.c: 164: }
  6800  03F0  2BF5               	goto	l3321
  6801  03F1                     l3317:	
  6802                           
  6803                           ;LED_B1.c: 167: else if (led == 2) {
  6804  03F1  0856               	movf	setLED@led,w
  6805  03F2  3A02               	xorlw	2
  6806  03F3  1903               	btfsc	3,2
  6807                           
  6808                           ;LED_B1.c: 171: RB5 = 1;
  6809  03F4  1686               	bsf	6,5	;volatile
  6810  03F5                     l3321:	
  6811                           
  6812                           ;LED_B1.c: 173: }
  6813                           ;LED_B1.c: 185: if (led == 99) {
  6814  03F5  0856               	movf	setLED@led,w
  6815  03F6  3A63               	xorlw	99
  6816  03F7  1903               	btfsc	3,2
  6817                           
  6818                           ;LED_B1.c: 189: RB3 = 1;
  6819  03F8  1586               	bsf	6,3	;volatile
  6820  03F9                     l3325:	
  6821                           
  6822                           ;LED_B1.c: 191: }
  6823                           ;LED_B1.c: 193: }
  6824                           ;LED_B1.c: 194: if (command == 11) {
  6825  03F9  0876               	movf	setLED@command,w
  6826  03FA  3A0B               	xorlw	11
  6827  03FB  1D03               	skipz
  6828  03FC  2C01               	goto	l3329
  6829                           
  6830                           ;LED_B1.c: 195: LED->GO = 1;
  6831  03FD  0877               	movf	_LED,w
  6832  03FE  0084               	movwf	4
  6833  03FF  1383               	bcf	3,7	;select IRP bank0
  6834  0400  1480               	bsf	0,1
  6835  0401                     l3329:	
  6836                           
  6837                           ;LED_B1.c: 196: }
  6838                           ;LED_B1.c: 198: if (command == 111) {
  6839  0401  0876               	movf	setLED@command,w
  6840  0402  3A6F               	xorlw	111
  6841  0403  1D03               	skipz
  6842  0404  2C21               	goto	l3355
  6843                           
  6844                           ;LED_B1.c: 199: PIRLED.Count = 0;
  6845  0405  1283               	bcf	3,5	;RP0=0, select bank0
  6846  0406  1303               	bcf	3,6	;RP1=0, select bank0
  6847  0407  01AE               	clrf	_PIRLED+1
  6848                           
  6849                           ;LED_B1.c: 200: PIRLED.Time = 0;
  6850  0408  01AF               	clrf	_PIRLED+2
  6851  0409  01B0               	clrf	_PIRLED+3
  6852                           
  6853                           ;LED_B1.c: 201: PIRLED.status = 0;
  6854  040A  122D               	bcf	_PIRLED,4
  6855                           
  6856                           ;LED_B1.c: 202: PIRLED.GO = 1;
  6857  040B  142D               	bsf	_PIRLED,0
  6858                           
  6859                           ;LED_B1.c: 203: PIRLED.GO1 = 0;
  6860  040C  10AD               	bcf	_PIRLED,1
  6861                           
  6862                           ;LED_B1.c: 204: PIRLED.GO2 = 0;
  6863  040D  112D               	bcf	_PIRLED,2
  6864                           
  6865                           ;LED_B1.c: 205: PIRLED.GO3 = 0;
  6866  040E  11AD               	bcf	_PIRLED,3
  6867                           
  6868                           ;LED_B1.c: 206: if (led == 1) {
  6869  040F  0856               	movf	setLED@led,w
  6870  0410  3A01               	xorlw	1
  6871  0411  1D03               	skipz
  6872  0412  2C15               	goto	l3347
  6873                           
  6874                           ;LED_B1.c: 207: PIRLED.GO1 = 1;
  6875  0413  14AD               	bsf	_PIRLED,1
  6876                           
  6877                           ;LED_B1.c: 208: } else if (led == 2) {
  6878  0414  0008               	return
  6879  0415                     l3347:	
  6880  0415  0856               	movf	setLED@led,w
  6881  0416  3A02               	xorlw	2
  6882  0417  1D03               	skipz
  6883  0418  2C1B               	goto	l3351
  6884                           
  6885                           ;LED_B1.c: 209: PIRLED.GO2 = 1;
  6886  0419  152D               	bsf	_PIRLED,2
  6887                           
  6888                           ;LED_B1.c: 210: } else if (led == 3) {
  6889  041A  0008               	return
  6890  041B                     l3351:	
  6891  041B  0856               	movf	setLED@led,w
  6892  041C  3A03               	xorlw	3
  6893  041D  1D03               	skipz
  6894  041E  0008               	return
  6895                           
  6896                           ;LED_B1.c: 211: PIRLED.GO3 = 1;
  6897  041F  15AD               	bsf	_PIRLED,3
  6898                           
  6899                           ;LED_B1.c: 212: }
  6900                           ;LED_B1.c: 213: } else if (command == 110) {
  6901  0420  0008               	return
  6902  0421                     l3355:	
  6903  0421  0876               	movf	setLED@command,w
  6904  0422  3A6E               	xorlw	110
  6905  0423  1D03               	skipz
  6906  0424  0008               	return
  6907                           
  6908                           ;LED_B1.c: 214: PIRLED.GO = 0;
  6909  0425  1283               	bcf	3,5	;RP0=0, select bank0
  6910  0426  1303               	bcf	3,6	;RP1=0, select bank0
  6911  0427  102D               	bcf	_PIRLED,0
  6912  0428  0008               	return
  6913  0429                     __end_of_setLED:	
  6914                           
  6915                           	psect	text46
  6916  07D2                     __ptext46:	
  6917 ;; *************** function _LedPointSelect *****************
  6918 ;; Defined at:
  6919 ;;		line 7 in file "../src/LED_B1.c"
  6920 ;; Parameters:    Size  Location     Type
  6921 ;;  led             1    wreg     unsigned char 
  6922 ;; Auto vars:     Size  Location     Type
  6923 ;;  led             1    5[COMMON] unsigned char 
  6924 ;; Return value:  Size  Location     Type
  6925 ;;		None               void
  6926 ;; Registers used:
  6927 ;;		wreg
  6928 ;; Tracked objects:
  6929 ;;		On entry : 0/0
  6930 ;;		On exit  : 0/0
  6931 ;;		Unchanged: 0/0
  6932 ;; Data sizes:     COMMON   BANK0   BANK1   BANK2
  6933 ;;      Params:         0       0       0       0
  6934 ;;      Locals:         1       0       0       0
  6935 ;;      Temps:          1       0       0       0
  6936 ;;      Totals:         2       0       0       0
  6937 ;;Total ram usage:        2 bytes
  6938 ;; Hardware stack levels used:    1
  6939 ;; Hardware stack levels required when called:    2
  6940 ;; This function calls:
  6941 ;;		Nothing
  6942 ;; This function is called by:
  6943 ;;		_setLED_Initialization
  6944 ;;		_setLED
  6945 ;;		_setLED_Main
  6946 ;; This function uses a non-reentrant model
  6947 ;;
  6948                           
  6949                           
  6950                           ;psect for function _LedPointSelect
  6951  07D2                     _LedPointSelect:	
  6952                           
  6953                           ;incstack = 0
  6954                           ; Regs used in _LedPointSelect: [wreg]
  6955                           ;LedPointSelect@led stored from wreg
  6956  07D2  00F5               	movwf	LedPointSelect@led
  6957                           
  6958                           ;LED_B1.c: 9: if (led == 1) {
  6959  07D3  0875               	movf	LedPointSelect@led,w
  6960  07D4  3A01               	xorlw	1
  6961  07D5  1D03               	skipz
  6962  07D6  2FDB               	goto	l220
  6963                           
  6964                           ;LED_B1.c: 10: LED = &VarLED1;
  6965  07D7  304E               	movlw	_VarLED1& (0+255)
  6966  07D8  00F4               	movwf	??_LedPointSelect
  6967  07D9  0874               	movf	??_LedPointSelect,w
  6968  07DA  00F7               	movwf	_LED
  6969  07DB                     l220:	
  6970                           
  6971                           ;LED_B1.c: 11: }
  6972                           ;LED_B1.c: 14: if (led == 2) {
  6973  07DB  0875               	movf	LedPointSelect@led,w
  6974  07DC  3A02               	xorlw	2
  6975  07DD  1D03               	skipz
  6976  07DE  2FE3               	goto	l221
  6977                           
  6978                           ;LED_B1.c: 15: LED = &VarLED2;
  6979  07DF  3052               	movlw	_VarLED2& (0+255)
  6980  07E0  00F4               	movwf	??_LedPointSelect
  6981  07E1  0874               	movf	??_LedPointSelect,w
  6982  07E2  00F7               	movwf	_LED
  6983  07E3                     l221:	
  6984                           
  6985                           ;LED_B1.c: 16: }
  6986                           ;LED_B1.c: 24: if (led == 99) {
  6987  07E3  0875               	movf	LedPointSelect@led,w
  6988  07E4  3A63               	xorlw	99
  6989  07E5  1D03               	skipz
  6990  07E6  0008               	return
  6991                           
  6992                           ;LED_B1.c: 25: LED = &VarErrLED;
  6993  07E7  304A               	movlw	_VarErrLED& (0+255)
  6994  07E8  00F4               	movwf	??_LedPointSelect
  6995  07E9  0874               	movf	??_LedPointSelect,w
  6996  07EA  00F7               	movwf	_LED
  6997  07EB  0008               	return
  6998  07EC                     __end_of_LedPointSelect:	
  6999                           
  7000                           	psect	text47
  7001  06A3                     __ptext47:	
  7002 ;; *************** function _CDS_Main *****************
  7003 ;; Defined at:
  7004 ;;		line 11 in file "../src/CDS_B1.c"
  7005 ;; Parameters:    Size  Location     Type
  7006 ;;		None
  7007 ;; Auto vars:     Size  Location     Type
  7008 ;;		None
  7009 ;; Return value:  Size  Location     Type
  7010 ;;		None               void
  7011 ;; Registers used:
  7012 ;;		wreg, status,2, status,0
  7013 ;; Tracked objects:
  7014 ;;		On entry : 0/0
  7015 ;;		On exit  : 0/0
  7016 ;;		Unchanged: 0/0
  7017 ;; Data sizes:     COMMON   BANK0   BANK1   BANK2
  7018 ;;      Params:         0       0       0       0
  7019 ;;      Locals:         0       0       0       0
  7020 ;;      Temps:          3       0       0       0
  7021 ;;      Totals:         3       0       0       0
  7022 ;;Total ram usage:        3 bytes
  7023 ;; Hardware stack levels used:    1
  7024 ;; Hardware stack levels required when called:    2
  7025 ;; This function calls:
  7026 ;;		Nothing
  7027 ;; This function is called by:
  7028 ;;		_main
  7029 ;; This function uses a non-reentrant model
  7030 ;;
  7031                           
  7032                           
  7033                           ;psect for function _CDS_Main
  7034  06A3                     _CDS_Main:	
  7035                           
  7036                           ;CDS_B1.c: 13: if (_CDS.Enable == 1) {
  7037                           
  7038                           ;incstack = 0
  7039                           ; Regs used in _CDS_Main: [wreg+status,2+status,0]
  7040  06A3  1283               	bcf	3,5	;RP0=0, select bank0
  7041  06A4  1303               	bcf	3,6	;RP1=0, select bank0
  7042  06A5  1C28               	btfss	__CDS,0
  7043  06A6  0008               	return
  7044                           
  7045                           ;CDS_B1.c: 14: if (_CDS.GO == 0) {
  7046  06A7  18A8               	btfsc	__CDS,1
  7047  06A8  2EB6               	goto	l99
  7048                           
  7049                           ;CDS_B1.c: 15: if (_CDS.ADtoGO == 0) {
  7050  06A9  19A8               	btfsc	__CDS,3
  7051  06AA  0008               	return
  7052                           
  7053                           ;CDS_B1.c: 16: _CDS.Time++;
  7054  06AB  3001               	movlw	1
  7055  06AC  00F4               	movwf	??_CDS_Main
  7056  06AD  0874               	movf	??_CDS_Main,w
  7057  06AE  07A9               	addwf	__CDS+1,f
  7058                           
  7059                           ;CDS_B1.c: 17: if (_CDS.Time >= 10)
  7060  06AF  300A               	movlw	10
  7061  06B0  0229               	subwf	__CDS+1,w
  7062  06B1  1C03               	skipc
  7063  06B2  0008               	return
  7064                           
  7065                           ;CDS_B1.c: 18: {
  7066                           ;CDS_B1.c: 19: _CDS.Time = 0;
  7067  06B3  01A9               	clrf	__CDS+1
  7068                           
  7069                           ;CDS_B1.c: 20: _CDS.ADtoGO = 1;
  7070  06B4  15A8               	bsf	__CDS,3
  7071                           
  7072                           ;CDS_B1.c: 21: }
  7073                           ;CDS_B1.c: 22: }
  7074                           ;CDS_B1.c: 23: } else {
  7075  06B5  0008               	return
  7076  06B6                     l99:	
  7077                           
  7078                           ;CDS_B1.c: 24: if (_CDS.GO == 1) {
  7079  06B6  1CA8               	btfss	__CDS,1
  7080  06B7  0008               	return
  7081                           
  7082                           ;CDS_B1.c: 25: _CDS.GO = 0;
  7083  06B8  10A8               	bcf	__CDS,1
  7084                           
  7085                           ;CDS_B1.c: 26: if (_CDS.Status == 0) {
  7086  06B9  1A28               	btfsc	__CDS,4
  7087  06BA  2EC1               	goto	l2859
  7088                           
  7089                           ;CDS_B1.c: 27: if (_CDS.SignalAD >= _CDS.VRAD) {
  7090  06BB  082A               	movf	__CDS+2,w
  7091  06BC  022B               	subwf	__CDS+3,w
  7092  06BD  1C03               	skipc
  7093  06BE  0008               	return
  7094                           
  7095                           ;CDS_B1.c: 28: _CDS.Status = 1;
  7096  06BF  1628               	bsf	__CDS,4
  7097                           
  7098                           ;CDS_B1.c: 29: }
  7099                           ;CDS_B1.c: 30: } else {
  7100  06C0  0008               	return
  7101  06C1                     l2859:	
  7102                           
  7103                           ;CDS_B1.c: 31: if (_CDS.SignalAD <= (_CDS.VRAD - 100)) {
  7104  06C1  082A               	movf	__CDS+2,w
  7105  06C2  3E9C               	addlw	156
  7106  06C3  00F4               	movwf	??_CDS_Main
  7107  06C4  30FF               	movlw	255
  7108  06C5  1803               	skipnc
  7109  06C6  3000               	movlw	0
  7110  06C7  00F5               	movwf	??_CDS_Main+1
  7111  06C8  0875               	movf	??_CDS_Main+1,w
  7112  06C9  3A80               	xorlw	128
  7113  06CA  00F6               	movwf	??_CDS_Main+2
  7114  06CB  3080               	movlw	128
  7115  06CC  0276               	subwf	??_CDS_Main+2,w
  7116  06CD  1D03               	skipz
  7117  06CE  2ED1               	goto	u2675
  7118  06CF  082B               	movf	__CDS+3,w
  7119  06D0  0274               	subwf	??_CDS_Main,w
  7120  06D1                     u2675:	
  7121  06D1  1C03               	skipc
  7122  06D2  0008               	return
  7123                           
  7124                           ;CDS_B1.c: 32: _CDS.Status = 0;
  7125  06D3  1283               	bcf	3,5	;RP0=0, select bank0
  7126  06D4  1303               	bcf	3,6	;RP1=0, select bank0
  7127  06D5  1228               	bcf	__CDS,4
  7128  06D6  0008               	return
  7129  06D7                     __end_of_CDS_Main:	
  7130                           
  7131                           	psect	text48
  7132  0ED8                     __ptext48:	
  7133 ;; *************** function _CDS_Initialization *****************
  7134 ;; Defined at:
  7135 ;;		line 7 in file "../src/CDS_B1.c"
  7136 ;; Parameters:    Size  Location     Type
  7137 ;;		None
  7138 ;; Auto vars:     Size  Location     Type
  7139 ;;		None
  7140 ;; Return value:  Size  Location     Type
  7141 ;;		None               void
  7142 ;; Registers used:
  7143 ;;		None
  7144 ;; Tracked objects:
  7145 ;;		On entry : 0/0
  7146 ;;		On exit  : 0/0
  7147 ;;		Unchanged: 0/0
  7148 ;; Data sizes:     COMMON   BANK0   BANK1   BANK2
  7149 ;;      Params:         0       0       0       0
  7150 ;;      Locals:         0       0       0       0
  7151 ;;      Temps:          0       0       0       0
  7152 ;;      Totals:         0       0       0       0
  7153 ;;Total ram usage:        0 bytes
  7154 ;; Hardware stack levels used:    1
  7155 ;; Hardware stack levels required when called:    2
  7156 ;; This function calls:
  7157 ;;		Nothing
  7158 ;; This function is called by:
  7159 ;;		_main
  7160 ;; This function uses a non-reentrant model
  7161 ;;
  7162                           
  7163                           
  7164                           ;psect for function _CDS_Initialization
  7165  0ED8                     _CDS_Initialization:	
  7166                           
  7167                           ;CDS_B1.c: 8: _CDS.Enable = 1;
  7168                           
  7169                           ;incstack = 0
  7170                           ; Regs used in _CDS_Initialization: []
  7171  0ED8  1283               	bcf	3,5	;RP0=0, select bank0
  7172  0ED9  1303               	bcf	3,6	;RP1=0, select bank0
  7173  0EDA  1428               	bsf	__CDS,0
  7174  0EDB  0008               	return
  7175  0EDC                     __end_of_CDS_Initialization:	
  7176                           
  7177                           	psect	text49
  7178  0F6C                     __ptext49:	
  7179 ;; *************** function _ISR *****************
  7180 ;; Defined at:
  7181 ;;		line 107 in file "../src/MCU_B1.c"
  7182 ;; Parameters:    Size  Location     Type
  7183 ;;		None
  7184 ;; Auto vars:     Size  Location     Type
  7185 ;;		None
  7186 ;; Return value:  Size  Location     Type
  7187 ;;		None               void
  7188 ;; Registers used:
  7189 ;;		wreg, status,2, status,0, pclath, cstack
  7190 ;; Tracked objects:
  7191 ;;		On entry : 0/0
  7192 ;;		On exit  : 0/0
  7193 ;;		Unchanged: 0/0
  7194 ;; Data sizes:     COMMON   BANK0   BANK1   BANK2
  7195 ;;      Params:         0       0       0       0
  7196 ;;      Locals:         0       0       0       0
  7197 ;;      Temps:          4       0       0       0
  7198 ;;      Totals:         4       0       0       0
  7199 ;;Total ram usage:        4 bytes
  7200 ;; Hardware stack levels used:    1
  7201 ;; Hardware stack levels required when called:    1
  7202 ;; This function calls:
  7203 ;;		_TMR1_ISR
  7204 ;; This function is called by:
  7205 ;;		Interrupt level 1
  7206 ;; This function uses a non-reentrant model
  7207 ;;
  7208                           
  7209                           
  7210                           ;psect for function _ISR
  7211  0F6C                     _ISR:	
  7212                           
  7213                           ;MCU_B1.c: 109: ;;
  7214                           ;MCU_B1.c: 111: ;;
  7215                           ;MCU_B1.c: 113: TMR1_ISR();
  7216  0F6C  118A  279B  158A   	fcall	_TMR1_ISR
  7217  0F6F  0873               	movf	??_ISR+3,w
  7218  0F70  1283               	bcf	3,5	;RP0=0, select bank0
  7219  0F71  1303               	bcf	3,6	;RP1=0, select bank0
  7220  0F72  00FF               	movwf	127
  7221  0F73  0872               	movf	??_ISR+2,w
  7222  0F74  008A               	movwf	10
  7223  0F75  0871               	movf	??_ISR+1,w
  7224  0F76  0084               	movwf	4
  7225  0F77  0E70               	swapf	??_ISR^(0+-128),w
  7226  0F78  0083               	movwf	3
  7227  0F79  0EFE               	swapf	126,f
  7228  0F7A  0E7E               	swapf	126,w
  7229  0F7B  0009               	retfie
  7230  0F7C                     __end_of_ISR:	
  7231                           
  7232                           	psect	intentry
  7233  0004                     __pintentry:	
  7234                           ;incstack = 0
  7235                           ; Regs used in _ISR: [wreg+status,2+status,0+pclath+cstack]
  7236                           
  7237  0004                     interrupt_function:	
  7238  007E                     saved_w	set	btemp
  7239  0004  00FE               	movwf	btemp
  7240  0005  0E03               	swapf	3,w
  7241  0006  00F0               	movwf	??_ISR
  7242  0007  0804               	movf	4,w
  7243  0008  00F1               	movwf	??_ISR+1
  7244  0009  080A               	movf	10,w
  7245  000A  00F2               	movwf	??_ISR+2
  7246  000B  1283               	bcf	3,5	;RP0=0, select bank0
  7247  000C  1303               	bcf	3,6	;RP1=0, select bank0
  7248  000D  087F               	movf	btemp+1,w
  7249  000E  00F3               	movwf	??_ISR+3
  7250  000F  158A  2F6C         	ljmp	_ISR
  7251                           
  7252                           	psect	text50
  7253  079B                     __ptext50:	
  7254 ;; *************** function _TMR1_ISR *****************
  7255 ;; Defined at:
  7256 ;;		line 209 in file "../src/MCU_B1.c"
  7257 ;; Parameters:    Size  Location     Type
  7258 ;;		None
  7259 ;; Auto vars:     Size  Location     Type
  7260 ;;		None
  7261 ;; Return value:  Size  Location     Type
  7262 ;;		None               void
  7263 ;; Registers used:
  7264 ;;		wreg, status,2
  7265 ;; Tracked objects:
  7266 ;;		On entry : 0/0
  7267 ;;		On exit  : 0/0
  7268 ;;		Unchanged: 0/0
  7269 ;; Data sizes:     COMMON   BANK0   BANK1   BANK2
  7270 ;;      Params:         0       0       0       0
  7271 ;;      Locals:         0       0       0       0
  7272 ;;      Temps:          0       0       0       0
  7273 ;;      Totals:         0       0       0       0
  7274 ;;Total ram usage:        0 bytes
  7275 ;; Hardware stack levels used:    1
  7276 ;; This function calls:
  7277 ;;		Nothing
  7278 ;; This function is called by:
  7279 ;;		_ISR
  7280 ;; This function uses a non-reentrant model
  7281 ;;
  7282                           
  7283                           
  7284                           ;psect for function _TMR1_ISR
  7285  079B                     _TMR1_ISR:	
  7286                           
  7287                           ;MCU_B1.c: 210: if (TMR1IE == 1 && TMR1IF == 1) {
  7288                           
  7289                           ;incstack = 0
  7290                           ; Regs used in _TMR1_ISR: [wreg+status,2]
  7291  079B  1683               	bsf	3,5	;RP0=1, select bank1
  7292  079C  1303               	bcf	3,6	;RP1=0, select bank1
  7293  079D  1C0C               	btfss	12,0	;volatile
  7294  079E  0008               	return
  7295  079F  1283               	bcf	3,5	;RP0=0, select bank0
  7296  07A0  1303               	bcf	3,6	;RP1=0, select bank0
  7297  07A1  1C0C               	btfss	12,0	;volatile
  7298  07A2  0008               	return
  7299                           
  7300                           ;MCU_B1.c: 212: TMR1H = ((65536-1480)/256);
  7301  07A3  30FA               	movlw	250
  7302  07A4  008F               	movwf	15	;volatile
  7303                           
  7304                           ;MCU_B1.c: 213: TMR1L = ((65536-1480)%256);
  7305  07A5  3038               	movlw	56
  7306  07A6  008E               	movwf	14	;volatile
  7307                           
  7308                           ;MCU_B1.c: 214: TMR1IF = 0;
  7309  07A7  100C               	bcf	12,0	;volatile
  7310                           
  7311                           ;MCU_B1.c: 234: Timer1.Count++;
  7312  07A8  3001               	movlw	1
  7313  07A9  07B2               	addwf	_Timer1+1,f
  7314  07AA  1803               	skipnc
  7315  07AB  0AB3               	incf	_Timer1+2,f
  7316  07AC  3000               	movlw	0
  7317  07AD  07B3               	addwf	_Timer1+2,f
  7318                           
  7319                           ;MCU_B1.c: 235: if (Timer1.Count == 100)
  7320  07AE  3064               	movlw	100
  7321  07AF  0632               	xorwf	_Timer1+1,w
  7322  07B0  0433               	iorwf	_Timer1+2,w
  7323  07B1  1D03               	skipz
  7324  07B2  0008               	return
  7325                           
  7326                           ;MCU_B1.c: 236: {
  7327                           ;MCU_B1.c: 237: Timer1.Count = 0;
  7328  07B3  01B2               	clrf	_Timer1+1
  7329  07B4  01B3               	clrf	_Timer1+2
  7330                           
  7331                           ;MCU_B1.c: 238: Timer1.Timeout = 1;
  7332  07B5  1431               	bsf	_Timer1,0
  7333  07B6  0008               	return
  7334  07B7                     __end_of_TMR1_ISR:	
  7335  007E                     btemp	set	126	;btemp
  7336  007E                     wtemp	set	126
  7337  007E                     wtemp0	set	126
  7338  0080                     wtemp1	set	128
  7339  0082                     wtemp2	set	130
  7340  0084                     wtemp3	set	132
  7341  0086                     wtemp4	set	134
  7342  0088                     wtemp5	set	136
  7343  007F                     wtemp6	set	127
  7344  007E                     ttemp	set	126
  7345  007E                     ttemp0	set	126
  7346  0081                     ttemp1	set	129
  7347  0084                     ttemp2	set	132
  7348  0087                     ttemp3	set	135
  7349  007F                     ttemp4	set	127
  7350  007E                     ltemp	set	126
  7351  007E                     ltemp0	set	126
  7352  0082                     ltemp1	set	130
  7353  0086                     ltemp2	set	134
  7354  0080                     ltemp3	set	128


Data Sizes:
    Strings     0
    Constant    0
    Data        0
    BSS         104
    Persistent  0
    Stack       0

Auto Spaces:
    Space          Size  Autos    Used
    COMMON           14      7      10
    BANK0            80     22      76
    BANK1            80      0      47
    BANK2            16      0       0

Pointer List with Targets:

    Lights	PTR struct Lights size(1) Largest target is 7
		 -> NULL(NULL[0]), Lights1(BANK0[7]), 

    LED	PTR struct LED size(1) Largest target is 4
		 -> NULL(NULL[0]), VarErrLED(BANK0[4]), VarLED2(BANK0[4]), VarLED1(BANK0[4]), 


Critical Paths under _main in COMMON

    _main->_CDS_Main
    _main->_getCDS_AD
    _main->_getPIR_AD
    _main->_getTemp_AD
    _getTemp_AD->_getAD
    _getPIR_AD->_getAD
    _getCDS_AD->_getAD
    _setTemp_Main->_getMain_LightsStatus
    _PIR_Main->_setLED
    _PIR_Main->_setLights_Trigger
    _setMain_Exception->_getAll_Lights_Line
    _setMain_Exception->_setLED
    _setMain_Exception->_setLights_Trigger
    _setLights_Trigger->_LightsPointSelect
    _getAll_Lights_Line->_LightsPointSelect
    _getMain_All_Error_Status->_getCDS_Status
    _PIR_Initialization->_setLED
    _Mcu_Initialization->_WDT_Set
    _Lights_Main->_Lights_Control
    _setLights->_setLights_Line
    _setLights_Line->_LightsPointSelect
    _Lights_Control->_LightsPointSelect
    _Lights_Close->_getMain_LightsStatus
    _getLights_Status->_LightsPointSelect
    _Lights_Initialization->_setLights_Initialization
    _setLights_Initialization->_LightsPointSelect
    _setPIRLED_Main->_setLED
    _setLED_Initialization->_setLED
    _setLED->_LedPointSelect

Critical Paths under _ISR in COMMON

    None.

Critical Paths under _main in BANK0

    _main->_PIR_Main
    _getPIR_AD->___awdiv
    _Temp_Main->_setTemp_Main
    _setTemp_Main->___awdiv
    _PIR_Main->_setMain_Exception
    _setMain_Exception->_setLights_Trigger
    _PIR_Initialization->_setLED
    _Lights_Main->_Lights_Close
    _setLights_Main->_setLights
    _Lights_Close->_getMain_LightsStatus
    _getMain_LightsStatus->_getLights_Status
    _LED_Main->_setPIRLED_Main
    _setPIRLED_Main->_setLED
    _LED_Initialization->_setLED_Initialization
    _setLED_Initialization->_setLED

Critical Paths under _ISR in BANK0

    None.

Critical Paths under _main in BANK1

    None.

Critical Paths under _ISR in BANK1

    None.

Critical Paths under _main in BANK2

    None.

Critical Paths under _ISR in BANK2

    None.

Call Graph Tables:

 ---------------------------------------------------------------------------------
 (Depth) Function   	        Calls       Base Space   Used Autos Params    Refs
 ---------------------------------------------------------------------------------
 (0) _main                                                 5     1      4   20853
                                             17 BANK0      5     1      4
                 _CDS_Initialization
                           _CDS_Main
                 _LED_Initialization
                           _LED_Main
              _Lights_Initialization
                        _Lights_Main
                 _Mcu_Initialization
                 _PIR_Initialization
                           _PIR_Main
                _Temp_Initialization
                          _Temp_Main
                           _WDT_Main
                          _getCDS_AD
                          _getPIR_AD
                         _getTemp_AD
              _myMain_Initialization
                       _my_MainTimer
 ---------------------------------------------------------------------------------
 (1) _my_MainTimer                                         0     0      0       0
 ---------------------------------------------------------------------------------
 (1) _myMain_Initialization                                0     0      0       0
 ---------------------------------------------------------------------------------
 (1) _getTemp_AD                                           3     3      0     520
                                              6 COMMON     1     1      0
                                              0 BANK0      2     2      0
                              _getAD
 ---------------------------------------------------------------------------------
 (1) _getPIR_AD                                            7     6      1    2377
                                              6 COMMON     1     0      1
                                              8 BANK0      6     6      0
                            ___awdiv
                            ___lwdiv
                              _getAD
 ---------------------------------------------------------------------------------
 (2) ___lwdiv                                              8     4      4     657
                                              4 COMMON     1     1      0
                                              0 BANK0      7     3      4
 ---------------------------------------------------------------------------------
 (1) _getCDS_AD                                            6     5      1     661
                                              6 COMMON     1     0      1
                                              0 BANK0      5     5      0
                              _getAD
 ---------------------------------------------------------------------------------
 (2) _getAD                                                2     1      1     489
                                              4 COMMON     2     1      1
                    _Timeout_Counter
                 _set_TimeoutCleared
 ---------------------------------------------------------------------------------
 (3) _set_TimeoutCleared                                   0     0      0       0
 ---------------------------------------------------------------------------------
 (3) _Timeout_Counter                                      0     0      0       0
 ---------------------------------------------------------------------------------
 (1) _WDT_Main                                             1     1      0       0
                                              4 COMMON     1     1      0
                       _WDT_Clearing
 ---------------------------------------------------------------------------------
 (2) _WDT_Clearing                                         0     0      0       0
 ---------------------------------------------------------------------------------
 (1) _Temp_Main                                            0     0      0    1314
                       _setTemp_Main
 ---------------------------------------------------------------------------------
 (2) _setTemp_Main                                         1     1      0    1314
                                              8 BANK0      1     1      0
                            ___awdiv
           _getMain_All_Error_Status
               _getMain_LightsStatus
 ---------------------------------------------------------------------------------
 (2) ___awdiv                                              9     5      4     861
                                              4 COMMON     1     1      0
                                              0 BANK0      8     4      4
 ---------------------------------------------------------------------------------
 (1) _Temp_Initialization                                  0     0      0       0
             _setTemp_Initialization
 ---------------------------------------------------------------------------------
 (2) _setTemp_Initialization                               0     0      0       0
 ---------------------------------------------------------------------------------
 (1) _PIR_Main                                             8     8      0    6808
                                              9 BANK0      8     8      0
                   _getLights_Status
           _getMain_All_Error_Status
                             _setLED
                  _setLights_Trigger
                  _setMain_Exception
 ---------------------------------------------------------------------------------
 (2) _setMain_Exception                                    7     7      0    3363
                                              2 BANK0      7     7      0
                 _getAll_Lights_Line
                             _setLED
                  _setLights_Trigger
 ---------------------------------------------------------------------------------
 (3) _setLights_Trigger                                    3     2      1     405
                                              6 COMMON     1     0      1
                                              0 BANK0      2     2      0
                  _LightsPointSelect
 ---------------------------------------------------------------------------------
 (3) _getAll_Lights_Line                                   1     1      0      68
                                              6 COMMON     1     1      0
                  _LightsPointSelect
 ---------------------------------------------------------------------------------
 (3) _getMain_All_Error_Status                             7     7      0     184
                                              5 COMMON     1     1      0
                                              0 BANK0      6     6      0
                      _getCDS_Status
 ---------------------------------------------------------------------------------
 (4) _getCDS_Status                                        1     1      0      23
                                              4 COMMON     1     1      0
 ---------------------------------------------------------------------------------
 (1) _PIR_Initialization                                   1     1      0    2658
                                              1 BANK0      1     1      0
                             _setLED
 ---------------------------------------------------------------------------------
 (1) _Mcu_Initialization                                   0     0      0       0
                            _ADC_Set
                           _Fosc_Set
                             _IO_Set
                           _TMR1_Set
                            _WDT_Set
 ---------------------------------------------------------------------------------
 (2) _WDT_Set                                              1     1      0       0
                                              4 COMMON     1     1      0
 ---------------------------------------------------------------------------------
 (2) _TMR1_Set                                             0     0      0       0
 ---------------------------------------------------------------------------------
 (2) _IO_Set                                               0     0      0       0
 ---------------------------------------------------------------------------------
 (2) _Fosc_Set                                             0     0      0       0
 ---------------------------------------------------------------------------------
 (2) _ADC_Set                                              0     0      0       0
 ---------------------------------------------------------------------------------
 (1) _Lights_Main                                          0     0      0     942
                       _Lights_Close
                     _Lights_Control
                     _setLights_Main
 ---------------------------------------------------------------------------------
 (2) _setLights_Main                                       1     1      0     549
                                              3 BANK0      1     1      0
                  _LightsPointSelect
                          _setLights
 ---------------------------------------------------------------------------------
 (3) _setLights                                            3     2      1     425
                                              0 BANK0      3     2      1
                  _LightsPointSelect
                     _setLights_Line
 ---------------------------------------------------------------------------------
 (4) _setLights_Line                                       1     1      0      62
                                              6 COMMON     1     1      0
                  _LightsPointSelect
 ---------------------------------------------------------------------------------
 (2) _Lights_Control                                       3     3      0     124
                                              6 COMMON     1     1      0
                                              0 BANK0      2     2      0
                  _LightsPointSelect
 ---------------------------------------------------------------------------------
 (2) _Lights_Close                                         1     1      0     269
                                              6 BANK0      1     1      0
               _getMain_LightsStatus
 ---------------------------------------------------------------------------------
 (3) _getMain_LightsStatus                                 5     5      0     269
                                              6 COMMON     1     1      0
                                              2 BANK0      4     4      0
                   _getLights_Status
 ---------------------------------------------------------------------------------
 (4) _getLights_Status                                     2     2      0      96
                                              0 BANK0      2     2      0
                  _LightsPointSelect
 ---------------------------------------------------------------------------------
 (1) _Lights_Initialization                                0     0      0      62
           _setLights_Initialization
 ---------------------------------------------------------------------------------
 (2) _setLights_Initialization                             1     1      0      62
                                              6 COMMON     1     1      0
                  _LightsPointSelect
 ---------------------------------------------------------------------------------
 (5) _LightsPointSelect                                    2     2      0      31
                                              4 COMMON     2     2      0
 ---------------------------------------------------------------------------------
 (1) _LED_Main                                             0     0      0    2698
                     _setPIRLED_Main
 ---------------------------------------------------------------------------------
 (2) _setPIRLED_Main                                       2     2      0    2698
                                              1 BANK0      2     2      0
                             _setLED
 ---------------------------------------------------------------------------------
 (1) _LED_Initialization                                   0     0      0    2813
              _setLED_Initialization
 ---------------------------------------------------------------------------------
 (2) _setLED_Initialization                                1     1      0    2813
                                              1 BANK0      1     1      0
                     _LedPointSelect
                             _setLED
 ---------------------------------------------------------------------------------
 (3) _setLED                                               2     1      1    2658
                                              6 COMMON     1     0      1
                                              0 BANK0      1     1      0
                     _LedPointSelect
 ---------------------------------------------------------------------------------
 (4) _LedPointSelect                                       2     2      0      93
                                              4 COMMON     2     2      0
 ---------------------------------------------------------------------------------
 (1) _CDS_Main                                             3     3      0       0
                                              4 COMMON     3     3      0
 ---------------------------------------------------------------------------------
 (1) _CDS_Initialization                                   0     0      0       0
 ---------------------------------------------------------------------------------
 Estimated maximum stack depth 5
 ---------------------------------------------------------------------------------
 (Depth) Function   	        Calls       Base Space   Used Autos Params    Refs
 ---------------------------------------------------------------------------------
 (6) _ISR                                                  4     4      0       0
                                              0 COMMON     4     4      0
                           _TMR1_ISR
 ---------------------------------------------------------------------------------
 (7) _TMR1_ISR                                             0     0      0       0
 ---------------------------------------------------------------------------------
 Estimated maximum stack depth 7
 ---------------------------------------------------------------------------------

 Call Graph Graphs:

 _main (ROOT)
   _CDS_Initialization
   _CDS_Main
   _LED_Initialization
     _setLED_Initialization
       _LedPointSelect
       _setLED
         _LedPointSelect
   _LED_Main
     _setPIRLED_Main
       _setLED
         _LedPointSelect
   _Lights_Initialization
     _setLights_Initialization
       _LightsPointSelect
   _Lights_Main
     _Lights_Close
       _getMain_LightsStatus
         _getLights_Status
           _LightsPointSelect
     _Lights_Control
       _LightsPointSelect
     _setLights_Main
       _LightsPointSelect
       _setLights
         _LightsPointSelect
         _setLights_Line
           _LightsPointSelect
   _Mcu_Initialization
     _ADC_Set
     _Fosc_Set
     _IO_Set
     _TMR1_Set
     _WDT_Set
   _PIR_Initialization
     _setLED
       _LedPointSelect
   _PIR_Main
     _getLights_Status
       _LightsPointSelect
     _getMain_All_Error_Status
       _getCDS_Status
     _setLED
       _LedPointSelect
     _setLights_Trigger
       _LightsPointSelect
     _setMain_Exception
       _getAll_Lights_Line
         _LightsPointSelect
       _setLED
         _LedPointSelect
       _setLights_Trigger
         _LightsPointSelect
   _Temp_Initialization
     _setTemp_Initialization
   _Temp_Main
     _setTemp_Main
       ___awdiv
       _getMain_All_Error_Status
         _getCDS_Status
       _getMain_LightsStatus
         _getLights_Status
           _LightsPointSelect
   _WDT_Main
     _WDT_Clearing
   _getCDS_AD
     _getAD
       _Timeout_Counter
       _set_TimeoutCleared
   _getPIR_AD
     ___awdiv
     ___lwdiv
     _getAD
       _Timeout_Counter
       _set_TimeoutCleared
   _getTemp_AD
     _getAD
       _Timeout_Counter
       _set_TimeoutCleared
   _myMain_Initialization
   _my_MainTimer

 _ISR (ROOT)
   _TMR1_ISR

 Address spaces:
Name               Size   Autos  Total    Cost      Usage
BITCOMMON            E      0       0       0        0.0%
NULL                 0      0       0       0        0.0%
CODE                 0      0       0       0        0.0%
COMMON               E      7       A       1       71.4%
BITSFR0              0      0       0       1        0.0%
SFR0                 0      0       0       1        0.0%
BITSFR1              0      0       0       2        0.0%
SFR1                 0      0       0       2        0.0%
STACK                0      0       0       2        0.0%
ABS                  0      0      85       3        0.0%
BITBANK0            50      0       0       4        0.0%
BITSFR3              0      0       0       4        0.0%
SFR3                 0      0       0       4        0.0%
BANK0               50     16      4C       5       95.0%
BITSFR2              0      0       0       5        0.0%
SFR2                 0      0       0       5        0.0%
BITBANK1            50      0       0       6        0.0%
BANK1               50      0      2F       7       58.8%
BITBANK2            10      0       0       8        0.0%
BANK2               10      0       0       9        0.0%
DATA                 0      0      85      10        0.0%


Microchip Technology PIC Macro Assembler V1.32 build 58300 
Symbol Table                                                                                   Wed Nov 26 14:50:26 2014

                     _WDT_Clearing 0002                                 l99 06B6  
                     ___awdiv@sign 005B                                 fsr 0004  
                              l220 07DB                                l221 07E3  
                              l553 0681                                l721 01EC  
                              l554 06A1                                l722 004D  
                              l558 069D                                l654 03AE  
                              l727 0078                                l728 008E  
                              l667 03AB                                _GIE 005F  
                              _RB2 0032                                _RA4 002C  
                              _LED 0077                                _RB3 0033  
                              _RB4 0034                                _RB5 0035  
                              _PS0 0408                                _PS1 0409  
                              _PS2 040A                                _ISR 0F6C  
                              _PSA 040B                                _WDT 0034  
           getAll_Lights_Line@line 0076                                fsr0 0004  
                              indf 0000                    __end_of_ADC_Set 0EF7  
        __end_of_LightsPointSelect 0F11             _setMain_Exception$2047 005C  
                 _getLights_Status 0F7C            __size_of_Lights_Control 0057  
                             ?_ISR 0070                               l2511 0685  
                             l3321 03F5                               l3307 03DC  
                             l3403 05CB                               l3317 03F1  
                             l3325 03F9                               l2509 067D  
                             l3351 041B                               l3407 05E6  
                             l2519 0697                               l3329 0401  
                             l3521 0661                               l3425 04AF  
                             l3347 0415                               l3355 0421  
                             l3515 064F                               l3507 063B  
                             l3451 04EE                               l3443 04DB  
                             l3435 04B7                               l3419 04A4  
                             l3293 03CA                               l3613 052D  
                             l3437 04C5                               l3383 06FD  
                             l3519 0657                               l3447 04E6  
                             l3551 0380                               l3535 0345  
                             l2591 078C                               l3711 0253  
                             l3385 06DF                               l2593 078F  
                             l3641 05F8                               l3713 0257  
                             l3491 0472                               l3483 045A  
                             l3475 044E                               l3387 0704  
                             l3643 0606                               l3715 025B  
                             l3707 024D                               l3723 0268  
                             l3493 047A                               l2597 0795  
                             l3653 0627                               l3733 028C  
                             l3717 025F                               l3725 0279  
                             l3495 0488                               l3479 0454  
                             l3815 007B                               l3567 039B  
                             l3719 0263                               l3489 0466  
                             l3577 03AA                               l3649 061C  
                             l2859 06C1                               l3595 0753  
                             l3763 031E                               l3755 02F2  
                             l3739 02A8                               l3691 0776  
                             l3909 01BE                               l3749 02D6  
                             l3863 00D3                               l3847 00B0  
                             l3865 00D4                               l3769 032C  
                             l3883 0134                               l3875 0120  
                             l3859 00C7                               l3971 057E  
                             l3893 0169                               l3965 0562  
                             l3897 0199                               l3899 01A4  
            _myMain_Initialization 0ECE                       __CFG_WDTE$ON 0000  
                             u4020 0529                               u4105 0607  
                             u4115 0613                               u4125 061D  
                             u3505 06E8                               u3605 04C6  
                             u4085 05FB                               u3615 04D2  
                             u3720 046F                               u4505 018F  
                             u3625 04DC                               u1865 0FD0  
                             u2675 06D1                               _PEIE 005E  
                             u3740 0485                               u4525 01B4  
                             u4455 00F4                               u4465 0118  
                             u3585 04BA                               u4555 01DB  
                             u4485 0152                               __CDS 0028  
                             __PIR 00A0                               _Temp 0037  
                             _main 054C                               btemp 007E  
                  __end_of_WDT_Set 0F5D                               ltemp 007E  
                             start 0011                               ttemp 007E  
                             wtemp 007E                   __end_of_CDS_Main 06D7  
     __size_of_Temp_Initialization 0003                              ??_ISR 0070  
                _setLights_Trigger 07B7                      ??_Lights_Main 0077  
                    __CFG_PLLEN$ON 0000                   __end_of_LED_Main 0ED2  
               ?_setLights_Trigger 0076                   ??_setPIRLED_Main 0057  
                            ?_main 0067                    __end_of___awdiv 04F5  
                            _ADRES 001E                    ___awdiv@divisor 0056  
                            _T1CON 0010                    __end_of___lwdiv 062E  
                    ?_Lights_Close 0070                    ___awdiv@counter 005A  
                            _TMR1H 000F                              _TMR1L 000E  
                            _PORTA 0005                              _PORTB 0006  
                            _PORTC 0007                              _TRISA 0085  
                            _TRISB 0086                              _TRISC 0087  
             setMain_Exception@buz 005A            __end_of_Timeout_Counter 0FD6  
              ??_setLights_Trigger 0056                   __end_of_PIR_Main 01F4  
                 __end_of_TMR1_ISR 07B7                   __end_of_TMR1_Set 0F4F  
                            _getAD 077F                   __end_of_WDT_Main 0F9E  
                    _LightsControl 0036                     __CFG_BOREN$OFF 0000  
                            pclath 000A                              ltemp0 007E  
                            ltemp1 0082                              ltemp2 0086  
                            ltemp3 0080     __size_of_setLED_Initialization 0012  
     __end_of_getMain_LightsStatus 0708      __end_of_setLED_Initialization 0FB0  
                            ttemp0 007E                              ttemp1 0081  
                            ttemp2 0084                              ttemp3 0087  
                            ttemp4 007F                              status 0003  
                            wtemp0 007E                              wtemp1 0080  
                            wtemp2 0082                              wtemp3 0084  
                            wtemp4 0086                              wtemp5 0088  
                            wtemp6 007F                  getPIR_AD@channel1 0062  
                getPIR_AD@channel2 0076                     _setLights_Main 0732  
                   _setLights_Line 0F28                    __initialization 0013  
        __end_of_setLights_Trigger 07D2                       __end_of_main 059D  
                 __end_of_Fosc_Set 0EEA                          ??_ADC_Set 0074  
                           ??_main 006B                     ??_Lights_Close 005C  
              __end_of_Lights_Main 0F1C         __size_of_LightsPointSelect 000A  
                           ?_getAD 0074             ?_myMain_Initialization 0070  
                           _ADCON0 001F                             _ADCON1 009F  
                 ___awdiv@dividend 0058                          ??_WDT_Set 0074  
                           _ANSELA 0185                             _ANSELB 0186  
         _getMain_All_Error_Status 066D                             _FVRCON 009D  
           getLights_Status@lights 0056                             _PIRLED 002D  
                           _OSCCON 0090                             _TMR1IE 0460  
                           _TMR1IF 0060                             _IO_Set 0FEB  
           getLights_Status@status 0057             __end_of_setLights_Main 075A  
           __end_of_setLights_Line 0F34         __end_of_Mcu_Initialization 0F6C  
                           _Lights 0078                             _Timer1 0031  
      __size_of_CDS_Initialization 0004            ??_Lights_Initialization 0077  
                        ??___awdiv 0074                          ??___lwdiv 0074  
                           _setLED 03B2                             _myMain 0020  
                 ___awdiv@quotient 005C                 __size_of_Temp_Main 0003  
                           saved_w 007E                   ?_Timeout_Counter 0070  
                   _Lights_Control 04F5            __size_of_LedPointSelect 001A  
                        ?_CDS_Main 0070        __size_of_PIR_Initialization 0012  
       getMain_LightsStatus@status 005B            __end_of__initialization 0022  
                        ?_LED_Main 0070                      ?_my_MainTimer 0070  
                  ?_setLights_Main 0070                    ?_setLights_Line 0070  
       __size_of_setLights_Trigger 001B                     __pcstackCOMMON 0070  
               __size_of_getCDS_AD 002A           __end_of_getLights_Status 0F8D  
                    __end_of_getAD 079B                          ?_PIR_Main 0070  
                        ?_TMR1_ISR 0070                          ?_TMR1_Set 0070  
               _LED_Initialization 0F1C                 __size_of_getPIR_AD 013A  
                      _Lights_Main 0F11           _setLights_Initialization 0EE0  
                        ?_WDT_Main 0070               _getMain_LightsStatus 06D7  
       __end_of_set_TimeoutCleared 0EF0                ?_LED_Initialization 0070  
           __end_of_Lights_Control 054C              getMain_LightsStatus@i 0059  
                          ??_getAD 0075                _Temp_Initialization 0ED2  
                       ??_CDS_Main 0074                         __pbssBANK0 0020  
                       __pbssBANK1 00A0                          ?_Fosc_Set 0070  
      __size_of_getAll_Lights_Line 000D                  __end_of_Temp_Main 0ED8  
                          ?_IO_Set 0070                    __CFG_VCAPEN$DIS 0000  
                   ??_my_MainTimer 0074                         ??_LED_Main 0077  
             __end_of_Lights_Close 0FEB          getMain_LightsStatus@count 0058  
             ??_LED_Initialization 0077                  LedPointSelect@led 0075  
                       __pmaintext 054C               ?_Temp_Initialization 0070  
                       ??_PIR_Main 005F                         ??_TMR1_ISR 0070  
                    ?_setTemp_Main 0070                 __size_of_setLights 0051  
                       ??_TMR1_Set 0074                         __pintentry 0004  
                          ?_setLED 0076            setLights_Trigger@lights 0057  
                          _ADC_Set 0EF0                         _getTemp_AD 075A  
                       ??_WDT_Main 0074              ?_getMain_LightsStatus 0070  
           __size_of_getCDS_Status 0008                    ?_Lights_Control 0070  
                __end_of_getCDS_AD 0732                            _WDT_Set 0F4F  
                       ??_Fosc_Set 0074                  __end_of_getPIR_AD 032E  
                  __size_of_IO_Set 0015                         getCDS_AD@i 0058  
                       getCDS_AD@j 0059                            _Lights1 0043  
                          _VarLED1 004E                            _VarLED2 0052  
            ??_Temp_Initialization 0074                     ??_setTemp_Main 005E  
                          ___awdiv 0498                            ___lwdiv 05EE  
                  __size_of_setLED 0077                            __ptext0 0000  
                          __ptext1 07EC                            __ptext2 0ECE  
                          __ptext3 075A                            __ptext4 01F4  
                          __ptext5 05EE                            __ptext6 0708  
                          __ptext7 077F                            __ptext8 0EEA  
                          __ptext9 0FC2                         getPIR_AD@i 0063  
                       getPIR_AD@j 0061                       __size_of_ISR 0010  
       ??_getMain_All_Error_Status 0075            ??_myMain_Initialization 0074  
         ??_setTemp_Initialization 0074                     _LedPointSelect 07D2  
                          clrloop0 0F00                  __end_of_setLights 05EE  
             end_of_initialization 0022                      _getCDS_Status 0EF7  
            _setLED_Initialization 0F9E     __size_of_Lights_Initialization 0004  
    __end_of_Lights_Initialization 0EE0             ??_getMain_LightsStatus 0076  
                      ?_getTemp_AD 0070           setLED_Initialization@led 0057  
               _Mcu_Initialization 0F5D               __end_of_my_MainTimer 0800  
           __end_of_LedPointSelect 07EC                setPIRLED_Main@count 0058  
              ?_Mcu_Initialization 0070              __size_of_Lights_Close 0015  
          __size_of_setPIRLED_Main 006F                   ??_setLights_Main 0077  
                 ??_setLights_Line 0076               setLights_Main@lights 0059  
  getMain_All_Error_Status@command 005A                  __size_of_CDS_Main 0034  
                   ?_getCDS_Status 0070                     __end_of_IO_Set 1000  
       __end_of_CDS_Initialization 0EDC         ??_setLights_Initialization 0076  
                __size_of_LED_Main 0003                  _setMain_Exception 062E  
             ??_Mcu_Initialization 0075                      ?_WDT_Clearing 0070  
               ?_setMain_Exception 0070                  ?_getLights_Status 0070  
         setMain_Exception@command 005E                       ?_Lights_Main 0070  
                __size_of_PIR_Main 01CF                  __size_of_TMR1_ISR 001C  
               ??_getLights_Status 0076                  __size_of_TMR1_Set 000E  
                   __end_of_setLED 0429                ??_setMain_Exception 0058  
                     _Lights_Close 0FD6                  __size_of_WDT_Main 0011  
              start_initialization 0013                    ?_LedPointSelect 0070  
             setLights_Line@lights 0076                        __end_of_ISR 0F7C  
       __end_of_PIR_Initialization 0FC2    __size_of_setTemp_Initialization 0001  
              getCDS_Status@status 0074               __end_of_setTemp_Main 03B2  
               _set_TimeoutCleared 0EEA                           ??_IO_Set 0074  
         __size_of_Timeout_Counter 0014                          _VarErrLED 004A  
              __size_of_getTemp_AD 0025             ?_setLED_Initialization 0070  
                __size_of_Fosc_Set 0005          __end_of_setMain_Exception 066D  
                        _Temp_Main 0ED5                    setLights@lights 0058  
              ?_set_TimeoutCleared 0070                     ??_WDT_Clearing 0074  
                  setLights@status 0056                           ??_setLED 0077  
                         ?_ADC_Set 0070                   ??_Lights_Control 0056  
 __end_of_getMain_All_Error_Status 06A3                        __pbssCOMMON 0077  
                        ___latbits 0001                      __pcstackBANK0 0056  
             ??_set_TimeoutCleared 0074         __end_of_getAll_Lights_Line 0F41  
                         ?_WDT_Set 0070                    ??_getCDS_Status 0074  
                    PIR_Main@error 0066                          _getCDS_AD 0708  
                        _getPIR_AD 01F4        __size_of_LED_Initialization 000C  
                       ?_Temp_Main 0070                   ___lwdiv@dividend 0058  
           _setTemp_Initialization 0ECD                      _PIR_Main$2715 0064  
                         ?___awdiv 0056              __size_of_my_MainTimer 0014  
                         ?___lwdiv 0056           setLights_Trigger@command 0076  
   __size_of_myMain_Initialization 0001      __end_of_myMain_Initialization 0ECF  
                   __size_of_getAD 001C                   ___lwdiv@quotient 005B  
                   _setPIRLED_Main 0429                           _CDS_Main 06A3  
      __end_of_Temp_Initialization 0ED5                  interrupt_function 0004  
                       ?_getCDS_AD 0076                           _LED_Main 0ECF  
                        _setLights 059D                          clear_ram0 0EFF  
 __end_of_setLights_Initialization 0EE5         __size_of_setMain_Exception 003F  
                     _my_MainTimer 07EC                         ?_getPIR_AD 0076  
                         _GO_nDONE 00F9                  ??_Timeout_Counter 0074  
                         _PIR_Main 0025                           _TMR1_ISR 079B  
                         _TMR1_Set 0F41                       ??_getTemp_AD 0056  
                         _WDT_Main 0F8D                   __size_of_ADC_Set 0007  
             __size_of_Lights_Main 000B              __size_of_setTemp_Main 0084  
           __end_of_setPIRLED_Main 0498     getMain_All_Error_Status@status 005B  
                      getAD@adcon0 0075                        getAD@adcon1 0074  
             __end_of_WDT_Clearing 0004                           _Fosc_Set 0EE5  
                 __size_of_WDT_Set 000E            setMain_Exception@status 005B  
__size_of_getMain_All_Error_Status 0036          ?_getMain_All_Error_Status 0070  
                       ?_setLights 0056                 __end_of_getTemp_AD 077F  
                         _SwDetect 0079                        ??_Temp_Main 0077  
    _getMain_All_Error_Status$2063 0056      _getMain_All_Error_Status$2065 0058  
                        setLED@led 0056                       _setTemp_Main 032E  
                 __size_of___awdiv 005D                   __size_of___lwdiv 0040  
                 ??_LedPointSelect 0074                 _CDS_Initialization 0ED8  
            _Lights_Initialization 0EDC      __size_of_getMain_LightsStatus 0031  
                getTemp_AD@channel 0076                    ?_setPIRLED_Main 0070  
                  ___lwdiv@divisor 0056                ?_CDS_Initialization 0070  
                  ___lwdiv@counter 005A                           __ptext10 0F8D  
                         __ptext11 0002                           __ptext20 0F34  
                         __ptext12 0ED5                           __ptext21 066D  
                         __ptext13 032E                           __ptext30 0F11  
                         __ptext22 0EF7                           __ptext14 0498  
                         __ptext31 0732                           __ptext23 0FB0  
                         __ptext15 0ED2                           __ptext40 0F07  
                         __ptext32 059D                           __ptext24 0F5D  
                         __ptext16 0ECD                           __ptext41 0ECF  
                         __ptext33 0F28                           __ptext25 0F4F  
                         __ptext17 0025                           __ptext50 079B  
                         __ptext42 0429                           __ptext34 04F5  
                         __ptext26 0F41                           __ptext18 062E  
                         __ptext43 0F1C                           __ptext35 0FD6  
                         __ptext27 0FEB                           __ptext19 07B7  
                         __ptext44 0F9E                           __ptext36 06D7  
                         __ptext28 0EE5                           __ptext45 03B2  
                         __ptext37 0F7C                           __ptext29 0EF0  
                         __ptext46 07D2                           __ptext38 0EDC  
                         __ptext47 06A3                           __ptext39 0EE0  
                         __ptext48 0ED8                           __ptext49 0F6C  
        __size_of_getLights_Status 0011            ??_setLED_Initialization 0077  
                      ??_getCDS_AD 0056                      setLED@command 0076  
                    __size_of_main 0051                        ??_getPIR_AD 005E  
               _PIR_Initialization 0FB0               ??_CDS_Initialization 0074  
      __size_of_Mcu_Initialization 000F                ?_PIR_Initialization 0070  
                         main@argc 0067                           main@argv 0069  
__size_of_setLights_Initialization 0005          ?_setLights_Initialization 0070  
             Lights_Control@lights 0076               ??_PIR_Initialization 0057  
                         intlevel1 0000                        ??_setLights 0057  
          ?_setTemp_Initialization 0070            LightsPointSelect@lights 0075  
               _getAll_Lights_Line 0F34            __size_of_setLights_Main 0028  
          __size_of_setLights_Line 000C                ?_getAll_Lights_Line 0070  
           ?_Lights_Initialization 0070              __size_of_WDT_Clearing 0002  
   setLights_Initialization@lights 0076        __size_of_set_TimeoutCleared 0006  
                _LightsPointSelect 0F07               ??_getAll_Lights_Line 0076  
               __CFG_FOSC$INTOSCIO 0000                 ?_LightsPointSelect 0070  
                  _Timeout_Counter 0FC2         __end_of_LED_Initialization 0F28  
            __end_of_getCDS_Status 0EFF     __end_of_setTemp_Initialization 0ECE  
                getCDS_AD@channel1 005A                  getCDS_AD@channel2 0076  
              ??_LightsPointSelect 0074  
