

Microchip Technology PIC LITE Macro Assembler V1.32 build 58300 
                                                                                               Thu Oct 30 13:58:59 2014

Microchip Technology Omniscient Code Generator (Lite mode) build 58300
     1                           	processor	16F1518
     2                           	opt	pw 120
     3                           	opt	lm
     4                           	psect	intentry,global,class=CODE,delta=2
     5                           	psect	cinit,global,class=CODE,merge=1,delta=2
     6                           	psect	bssCOMMON,global,class=COMMON,space=1,delta=1
     7                           	psect	cstackCOMMON,global,class=COMMON,space=1,delta=1
     8                           	psect	maintext,global,class=CODE,merge=1,split=1,delta=2
     9                           	psect	text1,local,class=CODE,merge=1,delta=2
    10                           	dabs	1,0x7E,2
    11  0000                     	;# 
    12  0001                     	;# 
    13  0002                     	;# 
    14  0003                     	;# 
    15  0004                     	;# 
    16  0005                     	;# 
    17  0006                     	;# 
    18  0007                     	;# 
    19  0008                     	;# 
    20  0009                     	;# 
    21  000A                     	;# 
    22  000B                     	;# 
    23  000C                     	;# 
    24  000D                     	;# 
    25  000E                     	;# 
    26  0010                     	;# 
    27  0011                     	;# 
    28  0012                     	;# 
    29  0015                     	;# 
    30  0016                     	;# 
    31  0016                     	;# 
    32  0017                     	;# 
    33  0018                     	;# 
    34  0019                     	;# 
    35  001A                     	;# 
    36  001B                     	;# 
    37  001C                     	;# 
    38  008C                     	;# 
    39  008D                     	;# 
    40  008E                     	;# 
    41  0090                     	;# 
    42  0091                     	;# 
    43  0092                     	;# 
    44  0095                     	;# 
    45  0096                     	;# 
    46  0097                     	;# 
    47  0099                     	;# 
    48  009A                     	;# 
    49  009B                     	;# 
    50  009B                     	;# 
    51  009C                     	;# 
    52  009D                     	;# 
    53  009E                     	;# 
    54  010C                     	;# 
    55  010D                     	;# 
    56  010E                     	;# 
    57  0116                     	;# 
    58  0117                     	;# 
    59  011D                     	;# 
    60  018C                     	;# 
    61  018D                     	;# 
    62  018E                     	;# 
    63  0191                     	;# 
    64  0191                     	;# 
    65  0192                     	;# 
    66  0193                     	;# 
    67  0193                     	;# 
    68  0194                     	;# 
    69  0195                     	;# 
    70  0196                     	;# 
    71  0197                     	;# 
    72  0199                     	;# 
    73  019A                     	;# 
    74  019B                     	;# 
    75  019B                     	;# 
    76  019B                     	;# 
    77  019B                     	;# 
    78  019C                     	;# 
    79  019C                     	;# 
    80  019D                     	;# 
    81  019E                     	;# 
    82  019F                     	;# 
    83  020D                     	;# 
    84  0210                     	;# 
    85  0211                     	;# 
    86  0211                     	;# 
    87  0212                     	;# 
    88  0212                     	;# 
    89  0213                     	;# 
    90  0213                     	;# 
    91  0214                     	;# 
    92  0214                     	;# 
    93  0215                     	;# 
    94  0215                     	;# 
    95  0215                     	;# 
    96  0216                     	;# 
    97  0216                     	;# 
    98  0217                     	;# 
    99  0217                     	;# 
   100  0291                     	;# 
   101  0291                     	;# 
   102  0292                     	;# 
   103  0293                     	;# 
   104  0298                     	;# 
   105  0298                     	;# 
   106  0299                     	;# 
   107  029A                     	;# 
   108  0394                     	;# 
   109  0395                     	;# 
   110  0396                     	;# 
   111  0FE4                     	;# 
   112  0FE5                     	;# 
   113  0FE6                     	;# 
   114  0FE7                     	;# 
   115  0FE8                     	;# 
   116  0FE9                     	;# 
   117  0FEA                     	;# 
   118  0FEB                     	;# 
   119  0FED                     	;# 
   120  0FEE                     	;# 
   121  0FEF                     	;# 
   122  000D                     _PORTB	set	13
   123  0018                     _T1CON	set	24
   124  0017                     _TMR1H	set	23
   125  0016                     _TMR1L	set	22
   126  005F                     _GIE	set	95
   127  005E                     _PEIE	set	94
   128  006D                     _RB5	set	109
   129  0088                     _TMR1IF	set	136
   130  0099                     _OSCCON	set	153
   131  008D                     _TRISB	set	141
   132  0488                     _TMR1IE	set	1160
   133  010D                     _LATB	set	269
   134  018C                     _ANSELA	set	396
   135                           
   136                           	psect	intentry
   137  0004                     __pintentry:	
   138                           
   139 ;; *************** function _ISR *****************
   140 ;; Defined at:
   141 ;;		line 62 in file "../src/timer1 example.c"
   142 ;; Parameters:    Size  Location     Type
   143 ;;		None
   144 ;; Auto vars:     Size  Location     Type
   145 ;;		None
   146 ;; Return value:  Size  Location     Type
   147 ;;		None               void
   148 ;; Registers used:
   149 ;;		wreg, status,2
   150 ;; Tracked objects:
   151 ;;		On entry : 0/0
   152 ;;		On exit  : 0/0
   153 ;;		Unchanged: 0/0
   154 ;; Data sizes:     COMMON   BANK0   BANK1   BANK2   BANK3   BANK4   BANK5   BANK6   BANK7   BANK8   BANK9  BANK10  BANK1
      +1  BANK12
   155 ;;      Params:         0       0       0       0       0       0       0       0       0       0       0       0       
      +0       0
   156 ;;      Locals:         0       0       0       0       0       0       0       0       0       0       0       0       
      +0       0
   157 ;;      Temps:          1       0       0       0       0       0       0       0       0       0       0       0       
      +0       0
   158 ;;      Totals:         1       0       0       0       0       0       0       0       0       0       0       0       
      +0       0
   159 ;;Total ram usage:        1 bytes
   160 ;; Hardware stack levels used:    1
   161 ;; This function calls:
   162 ;;		Nothing
   163 ;; This function is called by:
   164 ;;		Interrupt level 1
   165 ;; This function uses a non-reentrant model
   166 ;;
   167  0004                     _ISR:	
   168                           
   169                           ;incstack = 0
   170                           ; Regs used in _ISR: [wreg+status,2]
   171  0004  147E               	bsf	126,0	;set compiler interrupt flag
   172  0005  3180               	pagesel	$
   173  0006  0020               	movlb	0	; select bank0
   174  0007  087F               	movf	127,w
   175  0008  00F4               	movwf	??_ISR
   176                           
   177                           ;timer1 example.c: 63: if (TMR1IE == 1 && TMR1IF == 1) {
   178  0009  0021               	movlb	1	; select bank1
   179  000A  1C11               	btfss	17,0	;volatile
   180  000B  2824               	goto	i1l44
   181  000C  0020               	movlb	0	; select bank0
   182  000D  1C11               	btfss	17,0	;volatile
   183  000E  2824               	goto	i1l44
   184                           
   185                           ;timer1 example.c: 66: TMR1H = (65536 - 2000) / 256;
   186  000F  30F8               	movlw	248
   187  0010  0097               	movwf	23	;volatile
   188                           
   189                           ;timer1 example.c: 67: TMR1L = (65536 - 2000) % 256;
   190  0011  3030               	movlw	48
   191  0012  0096               	movwf	22	;volatile
   192                           
   193                           ;timer1 example.c: 68: TMR1IF = 0;
   194  0013  1011               	bcf	17,0	;volatile
   195                           
   196                           ;timer1 example.c: 71: Counter++;
   197  0014  3001               	movlw	1
   198  0015  07F2               	addwf	_Counter,f
   199  0016  3000               	movlw	0
   200  0017  3DF3               	addwfc	_Counter+1,f
   201                           
   202                           ;timer1 example.c: 72: if (Counter == 1000) {
   203  0018  3003               	movlw	3
   204  0019  0673               	xorwf	_Counter+1,w
   205  001A  1D03               	skipz
   206  001B  281E               	goto	u3_25
   207  001C  30E8               	movlw	232
   208  001D  0672               	xorwf	_Counter,w
   209  001E                     u3_25:	
   210  001E  1D03               	skipz
   211  001F  2824               	goto	i1l44
   212                           
   213                           ;timer1 example.c: 73: Counter = 0;
   214  0020  01F2               	clrf	_Counter
   215  0021  01F3               	clrf	_Counter+1
   216                           
   217                           ;timer1 example.c: 74: RB5 = RB5 == 1 ? 0 : 1;
   218  0022  3020               	movlw	32
   219  0023  068D               	xorwf	13,f
   220  0024                     i1l44:	
   221  0024  0874               	movf	??_ISR,w
   222  0025  0020               	movlb	0	; select bank0
   223  0026  00FF               	movwf	127
   224  0027  107E               	bcf	126,0	;clear compiler interrupt flag
   225  0028  0009               	retfie
   226  0029                     __end_of_ISR:	
   227  007E                     btemp	set	126	;btemp
   228  007E                     pic14e$flags	set	126
   229  007E                     wtemp	set	126
   230  007E                     wtemp0	set	126
   231  0080                     wtemp1	set	128
   232  0082                     wtemp2	set	130
   233  0084                     wtemp3	set	132
   234  0086                     wtemp4	set	134
   235  0088                     wtemp5	set	136
   236  007F                     wtemp6	set	127
   237  007E                     ttemp	set	126
   238  007E                     ttemp0	set	126
   239  0081                     ttemp1	set	129
   240  0084                     ttemp2	set	132
   241  0087                     ttemp3	set	135
   242  007F                     ttemp4	set	127
   243  007E                     ltemp	set	126
   244  007E                     ltemp0	set	126
   245  0082                     ltemp1	set	130
   246  0086                     ltemp2	set	134
   247  0080                     ltemp3	set	128
   248                           
   249                           	psect	cinit
   250  002B                     start_initialization:	
   251                           ; #config settings
   252                           
   253  002B                     __initialization:	
   254                           
   255                           ; Clear objects allocated to COMMON
   256  002B  01F0               	clrf	__pbssCOMMON& (0+127)
   257  002C  01F1               	clrf	(__pbssCOMMON+1)& (0+127)
   258  002D  01F2               	clrf	(__pbssCOMMON+2)& (0+127)
   259  002E  01F3               	clrf	(__pbssCOMMON+3)& (0+127)
   260  002F                     end_of_initialization:	
   261                           ;End of C runtime variable initialization code
   262                           
   263  002F                     __end_of__initialization:	
   264  002F  107E               	bcf	pic14e$flags,0	;clear compiler interrupt flag
   265  0030  0020               	movlb	0
   266  0031  3180  2842         	ljmp	_main	;jump to C main() function
   267                           
   268                           	psect	bssCOMMON
   269  0070                     __pbssCOMMON:	
   270  0070                     _Count:	
   271  0070                     	ds	2
   272  0072                     _Counter:	
   273  0072                     	ds	2
   274                           
   275                           	psect	cstackCOMMON
   276  0074                     __pcstackCOMMON:	
   277  0074                     ?_TMR1_Init:	
   278  0074                     ?_main:	
   279                           ; 0 bytes @ 0x0
   280                           
   281  0074                     ?_ISR:	
   282                           ; 0 bytes @ 0x0
   283                           
   284  0074                     ??_ISR:	
   285                           ; 0 bytes @ 0x0
   286                           
   287                           
   288                           ; 0 bytes @ 0x0
   289  0074                     	ds	1
   290  0075                     ??_TMR1_Init:	
   291  0075                     ??_main:	
   292                           ; 0 bytes @ 0x1
   293                           
   294                           
   295                           	psect	maintext
   296  0042                     __pmaintext:	
   297                           ; 0 bytes @ 0x1
   298 ;;
   299 ;;Main: autosize = 0, tempsize = 0, incstack = 0, save=0
   300 ;;
   301 ;; *************** function _main *****************
   302 ;; Defined at:
   303 ;;		line 50 in file "../src/timer1 example.c"
   304 ;; Parameters:    Size  Location     Type
   305 ;;		None
   306 ;; Auto vars:     Size  Location     Type
   307 ;;		None
   308 ;; Return value:  Size  Location     Type
   309 ;;		None               void
   310 ;; Registers used:
   311 ;;		wreg, status,2, status,0, pclath, cstack
   312 ;; Tracked objects:
   313 ;;		On entry : 17F/0
   314 ;;		On exit  : 0/0
   315 ;;		Unchanged: 0/0
   316 ;; Data sizes:     COMMON   BANK0   BANK1   BANK2   BANK3   BANK4   BANK5   BANK6   BANK7   BANK8   BANK9  BANK10  BANK1
      +1  BANK12
   317 ;;      Params:         0       0       0       0       0       0       0       0       0       0       0       0       
      +0       0
   318 ;;      Locals:         0       0       0       0       0       0       0       0       0       0       0       0       
      +0       0
   319 ;;      Temps:          0       0       0       0       0       0       0       0       0       0       0       0       
      +0       0
   320 ;;      Totals:         0       0       0       0       0       0       0       0       0       0       0       0       
      +0       0
   321 ;;Total ram usage:        0 bytes
   322 ;; Hardware stack levels required when called:    2
   323 ;; This function calls:
   324 ;;		_TMR1_Init
   325 ;; This function is called by:
   326 ;;		Startup code after reset
   327 ;; This function uses a non-reentrant model
   328 ;;
   329                           
   330                           
   331                           ;psect for function _main
   332  0042                     _main:	
   333                           
   334                           ;timer1 example.c: 51: TMR1_Init();
   335                           
   336                           ;incstack = 0
   337                           ; Regs used in _main: [wreg+status,2+status,0+pclath+cstack]
   338  0042  3180  2033  3180   	fcall	_TMR1_Init
   339                           
   340                           ;timer1 example.c: 52: TRISB = 0x00;
   341  0045  0021               	movlb	1	; select bank1
   342  0046  018D               	clrf	13	;volatile
   343                           
   344                           ;timer1 example.c: 53: LATB = 0x00;
   345  0047  0022               	movlb	2	; select bank2
   346  0048  018D               	clrf	13	;volatile
   347                           
   348                           ;timer1 example.c: 54: ANSELA = 0x00;
   349  0049  0023               	movlb	3	; select bank3
   350  004A  018C               	clrf	12	;volatile
   351                           
   352                           ;timer1 example.c: 55: PORTB = 0x00;
   353  004B  0020               	movlb	0	; select bank0
   354  004C  018D               	clrf	13	;volatile
   355  004D                     l36:	
   356                           ;timer1 example.c: 56: while (1);
   357                           
   358  004D  284D               	goto	l36
   359  004E                     __end_of_main:	
   360                           
   361                           	psect	text1
   362  0033                     __ptext1:	
   363 ;; *************** function _TMR1_Init *****************
   364 ;; Defined at:
   365 ;;		line 22 in file "../src/timer1 example.c"
   366 ;; Parameters:    Size  Location     Type
   367 ;;		None
   368 ;; Auto vars:     Size  Location     Type
   369 ;;		None
   370 ;; Return value:  Size  Location     Type
   371 ;;		None               void
   372 ;; Registers used:
   373 ;;		wreg
   374 ;; Tracked objects:
   375 ;;		On entry : 0/0
   376 ;;		On exit  : 0/0
   377 ;;		Unchanged: 0/0
   378 ;; Data sizes:     COMMON   BANK0   BANK1   BANK2   BANK3   BANK4   BANK5   BANK6   BANK7   BANK8   BANK9  BANK10  BANK1
      +1  BANK12
   379 ;;      Params:         0       0       0       0       0       0       0       0       0       0       0       0       
      +0       0
   380 ;;      Locals:         0       0       0       0       0       0       0       0       0       0       0       0       
      +0       0
   381 ;;      Temps:          0       0       0       0       0       0       0       0       0       0       0       0       
      +0       0
   382 ;;      Totals:         0       0       0       0       0       0       0       0       0       0       0       0       
      +0       0
   383 ;;Total ram usage:        0 bytes
   384 ;; Hardware stack levels used:    1
   385 ;; Hardware stack levels required when called:    1
   386 ;; This function calls:
   387 ;;		Nothing
   388 ;; This function is called by:
   389 ;;		_main
   390 ;; This function uses a non-reentrant model
   391 ;;
   392                           
   393                           
   394                           ;psect for function _TMR1_Init
   395  0033                     _TMR1_Init:	
   396                           
   397                           ;timer1 example.c: 38: OSCCON = 0x78;
   398                           
   399                           ;incstack = 0
   400                           ; Regs used in _TMR1_Init: [wreg]
   401  0033  3078               	movlw	120
   402  0034  0021               	movlb	1	; select bank1
   403  0035  0099               	movwf	25	;volatile
   404                           
   405                           ;timer1 example.c: 39: T1CON = 0x71;
   406  0036  3071               	movlw	113
   407  0037  0020               	movlb	0	; select bank0
   408  0038  0098               	movwf	24	;volatile
   409                           
   410                           ;timer1 example.c: 40: TMR1H = (65536 - 2000) / 256;
   411  0039  30F8               	movlw	248
   412  003A  0097               	movwf	23	;volatile
   413                           
   414                           ;timer1 example.c: 41: TMR1L = (65536 - 2000) % 256;
   415  003B  3030               	movlw	48
   416  003C  0096               	movwf	22	;volatile
   417                           
   418                           ;timer1 example.c: 42: TMR1IE = 1;
   419  003D  0021               	movlb	1	; select bank1
   420  003E  1411               	bsf	17,0	;volatile
   421                           
   422                           ;timer1 example.c: 43: PEIE = 1;
   423  003F  170B               	bsf	11,6	;volatile
   424                           
   425                           ;timer1 example.c: 44: GIE = 1;
   426  0040  178B               	bsf	11,7	;volatile
   427  0041  0008               	return
   428  0042                     __end_of_TMR1_Init:	


Data Sizes:
    Strings     0
    Constant    0
    Data        0
    BSS         4
    Persistent  0
    Stack       0

Auto Spaces:
    Space          Size  Autos    Used
    COMMON           14      1       5
    BANK0            80      0       0
    BANK1            80      0       0
    BANK2            80      0       0
    BANK3            80      0       0
    BANK4            80      0       0
    BANK5            80      0       0
    BANK6            80      0       0
    BANK7            80      0       0
    BANK8            80      0       0
    BANK9            80      0       0
    BANK10           80      0       0
    BANK11           80      0       0
    BANK12           48      0       0

Pointer List with Targets:

    None.

Critical Paths under _main in COMMON

    None.

Critical Paths under _ISR in COMMON

    None.

Critical Paths under _main in BANK0

    None.

Critical Paths under _ISR in BANK0

    None.

Critical Paths under _main in BANK1

    None.

Critical Paths under _ISR in BANK1

    None.

Critical Paths under _main in BANK2

    None.

Critical Paths under _ISR in BANK2

    None.

Critical Paths under _main in BANK3

    None.

Critical Paths under _ISR in BANK3

    None.

Critical Paths under _main in BANK4

    None.

Critical Paths under _ISR in BANK4

    None.

Critical Paths under _main in BANK5

    None.

Critical Paths under _ISR in BANK5

    None.

Critical Paths under _main in BANK6

    None.

Critical Paths under _ISR in BANK6

    None.

Critical Paths under _main in BANK7

    None.

Critical Paths under _ISR in BANK7

    None.

Critical Paths under _main in BANK8

    None.

Critical Paths under _ISR in BANK8

    None.

Critical Paths under _main in BANK9

    None.

Critical Paths under _ISR in BANK9

    None.

Critical Paths under _main in BANK10

    None.

Critical Paths under _ISR in BANK10

    None.

Critical Paths under _main in BANK11

    None.

Critical Paths under _ISR in BANK11

    None.

Critical Paths under _main in BANK12

    None.

Critical Paths under _ISR in BANK12

    None.

Call Graph Tables:

 ---------------------------------------------------------------------------------
 (Depth) Function   	        Calls       Base Space   Used Autos Params    Refs
 ---------------------------------------------------------------------------------
 (0) _main                                                 0     0      0       0
                          _TMR1_Init
 ---------------------------------------------------------------------------------
 (1) _TMR1_Init                                            0     0      0       0
 ---------------------------------------------------------------------------------
 Estimated maximum stack depth 1
 ---------------------------------------------------------------------------------
 (Depth) Function   	        Calls       Base Space   Used Autos Params    Refs
 ---------------------------------------------------------------------------------
 (2) _ISR                                                  1     1      0       0
                                              0 COMMON     1     1      0
 ---------------------------------------------------------------------------------
 Estimated maximum stack depth 2
 ---------------------------------------------------------------------------------

 Call Graph Graphs:

 _main (ROOT)
   _TMR1_Init

 _ISR (ROOT)

 Address spaces:
Name               Size   Autos  Total    Cost      Usage
BIGRAM             3F0      0       0       0        0.0%
NULL                 0      0       0       0        0.0%
CODE                 0      0       0       0        0.0%
BITCOMMON            E      0       0       1        0.0%
BITSFR0              0      0       0       1        0.0%
SFR0                 0      0       0       1        0.0%
COMMON               E      1       5       2       35.7%
BITSFR1              0      0       0       2        0.0%
SFR1                 0      0       0       2        0.0%
BITSFR2              0      0       0       3        0.0%
SFR2                 0      0       0       3        0.0%
STACK                0      0       0       3        0.0%
BITBANK0            50      0       0       4        0.0%
BITSFR3              0      0       0       4        0.0%
SFR3                 0      0       0       4        0.0%
BANK0               50      0       0       5        0.0%
BITSFR4              0      0       0       5        0.0%
SFR4                 0      0       0       5        0.0%
BITBANK1            50      0       0       6        0.0%
BITSFR5              0      0       0       6        0.0%
SFR5                 0      0       0       6        0.0%
BANK1               50      0       0       7        0.0%
BITSFR6              0      0       0       7        0.0%
SFR6                 0      0       0       7        0.0%
BITBANK2            50      0       0       8        0.0%
BITSFR7              0      0       0       8        0.0%
SFR7                 0      0       0       8        0.0%
BANK2               50      0       0       9        0.0%
BITSFR8              0      0       0       9        0.0%
SFR8                 0      0       0       9        0.0%
BITBANK3            50      0       0      10        0.0%
BITSFR9              0      0       0      10        0.0%
SFR9                 0      0       0      10        0.0%
BANK3               50      0       0      11        0.0%
BITSFR10             0      0       0      11        0.0%
SFR10                0      0       0      11        0.0%
BITBANK4            50      0       0      12        0.0%
BITSFR11             0      0       0      12        0.0%
SFR11                0      0       0      12        0.0%
BANK4               50      0       0      13        0.0%
BITSFR12             0      0       0      13        0.0%
SFR12                0      0       0      13        0.0%
BITBANK5            50      0       0      14        0.0%
BITSFR13             0      0       0      14        0.0%
SFR13                0      0       0      14        0.0%
BANK5               50      0       0      15        0.0%
BITSFR14             0      0       0      15        0.0%
SFR14                0      0       0      15        0.0%
BITBANK6            50      0       0      16        0.0%
BITSFR15             0      0       0      16        0.0%
SFR15                0      0       0      16        0.0%
BANK6               50      0       0      17        0.0%
BITSFR16             0      0       0      17        0.0%
SFR16                0      0       0      17        0.0%
BITBANK7            50      0       0      18        0.0%
BITSFR17             0      0       0      18        0.0%
SFR17                0      0       0      18        0.0%
BANK7               50      0       0      19        0.0%
BITSFR18             0      0       0      19        0.0%
SFR18                0      0       0      19        0.0%
BITSFR19             0      0       0      20        0.0%
SFR19                0      0       0      20        0.0%
ABS                  0      0       5      20        0.0%
BITBANK8            50      0       0      21        0.0%
BITSFR20             0      0       0      21        0.0%
SFR20                0      0       0      21        0.0%
BANK8               50      0       0      22        0.0%
BITSFR21             0      0       0      22        0.0%
SFR21                0      0       0      22        0.0%
BITBANK9            50      0       0      23        0.0%
BITSFR22             0      0       0      23        0.0%
SFR22                0      0       0      23        0.0%
BANK9               50      0       0      24        0.0%
BITSFR23             0      0       0      24        0.0%
SFR23                0      0       0      24        0.0%
BITBANK10           50      0       0      25        0.0%
BITSFR24             0      0       0      25        0.0%
SFR24                0      0       0      25        0.0%
BANK10              50      0       0      26        0.0%
BITSFR25             0      0       0      26        0.0%
SFR25                0      0       0      26        0.0%
BITBANK11           50      0       0      27        0.0%
BITSFR26             0      0       0      27        0.0%
SFR26                0      0       0      27        0.0%
BANK11              50      0       0      28        0.0%
BITSFR27             0      0       0      28        0.0%
SFR27                0      0       0      28        0.0%
BITBANK12           30      0       0      29        0.0%
BITSFR28             0      0       0      29        0.0%
SFR28                0      0       0      29        0.0%
BANK12              30      0       0      30        0.0%
BITSFR29             0      0       0      30        0.0%
SFR29                0      0       0      30        0.0%
BITSFR30             0      0       0      31        0.0%
SFR30                0      0       0      31        0.0%
DATA                 0      0       5      31        0.0%
BITSFR31             0      0       0      32        0.0%
SFR31                0      0       0      32        0.0%


Microchip Technology PIC Macro Assembler V1.32 build 58300 
Symbol Table                                                                                   Thu Oct 30 13:58:59 2014

                     l36 004D                      _GIE 005F                      _RB5 006D  
                    _ISR 0004                     ?_ISR 0074                     _LATB 010D  
                   _PEIE 005E                     i1l44 0024                     u3_25 001E  
                   _main 0042                     btemp 007E                     ltemp 007E  
                   start 0029                     ttemp 007E                     wtemp 007E  
                  ??_ISR 0074                    ?_main 0074                    _T1CON 0018  
                  _TMR1H 0017                    _TMR1L 0016                    _PORTB 000D  
                  _TRISB 008D                    _Count 0070       __size_of_TMR1_Init 000F  
                  ltemp0 007E                    ltemp1 0082                    ltemp2 0086  
                  ltemp3 0080                    ttemp0 007E                    ttemp1 0081  
                  ttemp2 0084                    ttemp3 0087                    ttemp4 007F  
                  wtemp0 007E                    wtemp1 0080                    wtemp2 0082  
                  wtemp3 0084                    wtemp4 0086                    wtemp5 0088  
                  wtemp6 007F          __initialization 002B             __end_of_main 004E  
                 ??_main 0075                   _ANSELA 018C                   _OSCCON 0099  
                 _TMR1IE 0488                   _TMR1IF 0088        __end_of_TMR1_Init 0042  
__end_of__initialization 002F           __pcstackCOMMON 0074               __pmaintext 0042  
             __pintentry 0004                  _Counter 0072                  __ptext1 0033  
           __size_of_ISR 0025     end_of_initialization 002F                _TMR1_Init 0033  
             ?_TMR1_Init 0074      start_initialization 002B              __end_of_ISR 0029  
            __pbssCOMMON 0070                ___latbits 0003              ??_TMR1_Init 0075  
          __size_of_main 000C              pic14e$flags 007E                 intlevel1 0000  
